ccopy_reg
_reconstructor
p0
(csklearn.tree.tree
DecisionTreeClassifier
p1
c__builtin__
object
p2
Ntp3
Rp4
(dp5
S'presort'
p6
I00
sS'splitter'
p7
S'best'
p8
sS'min_impurity_decrease'
p9
F0.0
sS'min_impurity_split'
p10
NsS'min_samples_leaf'
p11
I1
sS'max_features'
p12
NsS'random_state'
p13
I0
sS'criterion'
p14
S'gini'
p15
sS'min_weight_fraction_leaf'
p16
F0.0
sS'max_leaf_nodes'
p17
NsS'min_samples_split'
p18
I2
sS'_sklearn_version'
p19
S'0.19.1'
p20
sS'max_depth'
p21
NsS'class_weight'
p22
Nsb.