(dp0
S'METTS MARK'
p1
(dp2
S'salary'
p3
F1.056785616589328
sS'to_messages'
p4
F-0.13286958939892413
sS'deferral_payments'
p5
F-0.335804305643508
sS'total_payments'
p6
F-0.10321258470671239
sS'long_term_incentive'
p7
F-0.5260777063604076
sS'loan_advances'
p8
F-0.08617209056231624
sS'bonus'
p9
F-0.019848311776890216
sS'email_address'
p10
S'mark.metts@enron.com'
p11
sS'restricted_stock_deferred'
p12
F0.2658779782963589
sS'total_stock_value'
p13
F-0.35419355657345697
sS'expenses'
p14
F1.3012827733628443
sS'from_poi_to_this_person'
p15
F0.0790242221824545
sS'exercised_stock_options'
p16
F-0.4069051010463585
sS'from_messages'
p17
F-0.2710462534445664
sS'other'
p18
F-0.24594615502092598
sS'from_this_person_to_poi'
p19
F-0.2657877768978995
sS'poi'
p20
I00
sS'deferred_income'
p21
F0.3101128169098284
sS'shared_receipt_with_poi'
p22
F0.06130607276700768
sS'restricted_stock'
p23
F-0.1326976252287404
sS'director_fees'
p24
F-0.3155032871652021
ssS'BAXTER JOHN C'
p25
(dp26
g3
F0.5141502979190816
sg4
F-0.5446751773770485
sg5
F1.995380578182176
sg6
F0.4148451658607414
sg7
F2.4340759753006727
sg8
F-0.08617209056231624
sg9
F0.5344120147328854
sg10
S'NaN'
p27
sg12
F0.2658779782963589
sg13
F1.2636523373264348
sg14
F-0.5172748184310392
sg15
F-0.5558524764006603
sg16
F0.9830042793385271
sg17
F-0.3169054973307457
sg18
F2.5387691426685017
sg19
F-0.2808780899666986
sg20
I00
sg21
F-2.223826496468904
sg22
F-0.6321837228451068
sg23
F1.5498649131188162
sg24
F-0.3155032871652021
ssS'ELLIOTT STEVEN'
p28
(dp29
g3
F-0.014601043493576186
sg4
F-0.5446751773770485
sg5
F-0.335804305643508
sg6
F-0.1995275959331124
sg7
F-0.5260777063604076
sg8
F-0.08617209056231624
sg9
F-0.25079011448929667
sg10
S'steven.elliott@enron.com'
p30
sg12
F0.2658779782963589
sg13
F0.6279175560028102
sg14
F0.9566718105597024
sg15
F-0.5558524764006603
sg16
F0.6105472200384129
sg17
F-0.3169054973307457
sg18
F-0.23419270386879115
sg19
F-0.2808780899666986
sg20
I00
sg21
F-0.42248651508705926
sg22
F-0.6321837228451068
sg23
F0.4703059906037601
sg24
F-0.3155032871652021
ssS'CORDES WILLIAM R'
p31
(dp32
g3
F-0.954538055925031
sg4
F-0.15481214241386757
sg5
F-0.335804305643508
sg6
F-0.22351565354491607
sg7
F-0.5260777063604076
sg8
F-0.08617209056231624
sg9
F-0.5741086382866658
sg10
S'bill.cordes@enron.com'
p33
sg12
F0.2658779782963589
sg13
F-0.28116418107793956
sg14
F-0.7623781894474352
sg15
F-0.38877966098405115
sg16
F-0.27128554227930485
sg17
F-0.2979292584812922
sg18
F-0.24776872030073302
sg19
F-0.2808780899666986
sg20
I00
sg21
F0.3101128169098284
sg22
F-0.5748868451449607
sg23
F-0.23228227710993446
sg24
F-0.3155032871652021
ssS'HANNON KEVIN P'
p34
(dp35
g3
F0.38323401493851805
sg4
F-0.011420109920865161
sg5
F-0.335804305643508
sg6
F-0.19080850773081423
sg7
F2.491851094933662
sg8
F-0.08617209056231624
sg9
F0.8115421779877731
sg10
S'kevin.hannon@enron.com'
p36
sg12
F0.2658779782963589
sg13
F0.5815540731321648
sg14
F-0.01746089962358657
sg15
F-0.021219467067510996
sg16
F0.7452944112210372
sg17
F-0.26630219373220304
sg18
F-0.235880147929578
sg19
F0.03601848447808255
sg20
I01
sg21
F-5.388302262675005
sg22
F0.3902691809419851
sg23
F0.001601618826993149
sg24
F-0.3155032871652021
ssS'MORDAUNT KRISTINA M'
p37
(dp38
g3
F0.5141008104753912
sg4
F-0.5446751773770485
sg5
F-0.335804305643508
sg6
F-0.15230525351522625
sg7
F-0.5260777063604076
sg8
F-0.08617209056231624
sg9
F-0.27388429476053733
sg10
S'kristina.mordaunt@enron.com'
p39
sg12
F0.2658779782963589
sg13
F-0.4148820614641556
sg14
F0.003963761110793045
sg15
F-0.5558524764006603
sg16
F-0.4069051010463585
sg17
F-0.3169054973307457
sg18
F-0.24629076650199294
sg19
F-0.2808780899666986
sg20
I00
sg21
F0.3101128169098284
sg22
F-0.6321837228451068
sg23
F-0.32139266835407
sg24
F-0.3155032871652021
ssS'MEYER ROCKFORD G'
p40
(dp41
g3
F-0.954538055925031
sg4
F-0.42628744948247
sg5
F2.989373194961161
sg6
F-0.014114894278456781
sg7
F-0.5260777063604076
sg8
F-0.08617209056231624
sg9
F-0.5741086382866658
sg10
S'rockford.meyer@enron.com'
p42
sg12
F0.2658779782963589
sg13
F-0.294430322844716
sg14
F-0.7623781894474352
sg15
F-0.5558524764006603
sg16
F-0.3042330746040872
sg17
F-0.27262760668202085
sg18
F-0.24776872030073302
sg19
F-0.2808780899666986
sg20
I00
sg21
F0.3101128169098284
sg22
F-0.6104504244071204
sg23
F-0.19417314653928766
sg24
F-0.3155032871652021
ssS'MCMAHON JEFFREY'
p43
(dp44
g3
F1.0824091152112534
sg4
F0.6570623191390392
sg5
F-0.335804305643508
sg6
F0.24098094791075528
sg7
F0.7707867198709537
sg8
F-0.08617209056231624
sg9
F1.8276861099223616
sg10
S'jeffrey.mcmahon@enron.com'
p45
sg12
F0.2658779782963589
sg13
F-0.18048674914271481
sg14
F2.238124756384353
sg15
F0.4131698530156728
sg16
F-0.17720299728782407
sg17
F-0.2410005419329317
sg18
F0.0636940691512545
sg19
F0.11147004982207807
sg20
I00
sg21
F0.3101128169098284
sg22
F1.5688066826018892
sg23
F-0.1458573495895572
sg24
F-0.3155032871652021
ssS'HORTON STANLEY C'
p46
(dp47
g3
F-0.954538055925031
sg4
F0.6545108594861389
sg5
F5.298779761705221
sg6
F0.1313183911456188
sg7
F-0.5260777063604076
sg8
F-0.08617209056231624
sg9
F-0.5741086382866658
sg10
S'stanley.horton@enron.com'
p48
sg12
F0.2658779782963589
sg13
F0.7210592095510542
sg14
F-0.7623781894474352
sg15
F0.17926791143242
sg16
F0.6771710954793575
sg17
F1.3798865264578883
sg18
F-0.24776872030073302
sg19
F-0.054523393934712075
sg20
I00
sg21
F0.3101128169098284
sg22
F0.4287963918093248
sg23
F0.5994367568004074
sg24
F-0.3155032871652021
ssS'PIPER GREGORY F'
p49
(dp50
g3
F0.12918747345134954
sg4
F0.08706623268109022
sg5
F1.697263213699786
sg6
F-0.026645446625842607
sg7
F-0.5260777063604076
sg8
F-0.08617209056231624
sg9
F-0.2046017539468154
sg10
S'greg.piper@enron.com'
p51
sg12
F-4.4838678256489795
sg13
F-0.30661195848907236
sg14
F0.1798910825037223
sg15
F0.46329169764065553
sg16
F-0.2237578411137825
sg17
F0.034154921384144096
sg18
F-0.24695380318137103
sg19
F0.44345693733565833
sg20
I00
sg21
F0.24917454308025214
sg22
F0.10082116083607404
sg23
F-0.22064693801645724
sg24
F-0.3155032871652021
ssS'HUMPHREY GENE E'
p52
(dp53
g3
F-0.2357384349266193
sg4
F-0.4793578102627983
sg5
F4.9976902551477504
sg6
F0.1277340898557049
sg7
F-0.5260777063604076
sg8
F-0.08617209056231624
sg9
F-0.5741086382866658
sg10
S'gene.humphrey@enron.com'
p54
sg12
F0.2658779782963589
sg13
F-0.08057599808493875
sg14
F-0.6530883470495886
sg15
F-0.38877966098405115
sg16
F0.06803236758530452
sg17
F-0.2900224922940199
sg18
F-0.24776872030073302
sg19
F-0.024342767797113866
sg20
I00
sg21
F0.3101128169098284
sg22
F-0.5146263358396345
sg23
F-0.4258797071749035
sg24
F-0.3155032871652021
ssS'UMANOFF ADAM S'
p55
(dp56
g3
F0.6322988204275183
sg4
F-0.48803277308265963
sg5
F-0.335804305643508
sg6
F-0.09543647727429518
sg7
F-0.5260777063604076
sg8
F-0.08617209056231624
sg9
F0.15451274927097666
sg10
S'adam.umanoff@enron.com'
p57
sg12
F0.2658779782963589
sg13
F-0.44848740721921626
sg14
F0.4001558529751532
sg15
F-0.3553650979007293
sg16
F-0.4069051010463585
sg17
F-0.28844113905656543
sg18
F-0.24776872030073302
sg19
F-0.2808780899666986
sg20
I00
sg21
F0.3101128169098284
sg22
F-0.5916807575743138
sg23
F-0.4258797071749035
sg24
F-0.3155032871652021
ssS'BLACHMAN JEREMY M'
p58
(dp59
g3
F0.4121181862391565
sg4
F0.7182973508086489
sg5
F-0.335804305643508
sg6
F0.004761489250117496
sg7
F1.0263794743734393
sg8
F-0.08617209056231624
sg9
F0.21109349093551627
sg10
S'jeremy.blachman@enron.com'
p60
sg12
F0.2658779782963589
sg13
F-0.2946751385379774
sg14
F1.0804490129229825
sg15
F-0.1381704378591374
sg16
F-0.2476791880622515
sg17
F-0.29476655200638324
sg18
F-0.2474838135443494
sg19
F-0.2506974638291004
sg20
I00
sg21
F0.3101128169098284
sg22
F1.6656186483711017
sg23
F-0.3311488342876118
sg24
F-0.3155032871652021
ssS'SUNDE MARTIN'
p61
(dp62
g3
F0.4612757136383013
sg4
F0.8060675628684225
sg5
F-0.335804305643508
sg6
F-0.04846327755891634
sg7
F0.3631526051868612
sg8
F-0.08617209056231624
sg9
F0.07252840930807238
sg10
S'marty.sunde@enron.com'
p63
sg12
F0.2658779782963589
sg13
F-0.3358431779010686
sg14
F-0.7623781894474352
sg15
F0.06231694064079358
sg16
F-0.4069051010463585
sg17
F-0.25681407430747627
sg18
F-0.1313738358049191
sg19
F-0.08470402007231027
sg20
I00
sg21
F0.3101128169098284
sg22
F1.9017212995837731
sg23
F-0.07564191919036117
sg24
F-0.3155032871652021
ssS'GIBBS DANA R'
p64
(dp65
g3
F-0.954538055925031
sg4
F-0.458435841109015
sg5
F0.5720483653650436
sg6
F-0.11401046795476033
sg7
F0.3360175598210508
sg8
F-0.08617209056231624
sg9
F-0.5741086382866658
sg10
S'dana.gibbs@enron.com'
p66
sg12
F0.2658779782963589
sg13
F-0.09097026964880199
sg14
F-0.7623781894474352
sg15
F-0.5558524764006603
sg16
F0.054614384608295104
sg17
F-0.2979292584812922
sg18
F-0.24776872030073302
sg19
F-0.2808780899666986
sg20
I00
sg21
F0.3101128169098284
sg22
F-0.6094625472053937
sg23
F-0.4258797071749035
sg24
F-0.3155032871652021
ssS'LOWRY CHARLES P'
p67
(dp68
g3
F-0.954538055925031
sg4
F-0.5446751773770485
sg5
F-0.335804305643508
sg6
F-0.22351565354491607
sg7
F-0.5260777063604076
sg8
F-0.08617209056231624
sg9
F-0.5741086382866658
sg10
g27
sg12
F-1.516474125761087
sg13
F-0.38849950392075416
sg14
F-0.7623781894474352
sg15
F-0.5558524764006603
sg16
F-0.32946661386235726
sg17
F-0.3169054973307457
sg18
F-0.24776872030073302
sg19
F-0.2808780899666986
sg20
I00
sg21
F0.3101128169098284
sg22
F-0.6321837228451068
sg23
F-0.34886567883948255
sg24
F-0.3155032871652021
ssS'COLWELL WESLEY'
p69
(dp70
g3
F0.6320403859993572
sg4
F0.3524180365827317
sg5
F-0.2861306720521283
sg6
F-0.054662387594244424
sg7
F-0.5260777063604076
sg8
F-0.08617209056231624
sg9
F0.5344120147328854
sg10
S'wes.colwell@enron.com'
p71
sg12
F0.2658779782963589
sg13
F-0.3359524504751511
sg14
F-0.40098202257558124
sg15
F3.4538950935979593
sg16
F-0.4069051010463585
sg17
F-0.25365136783256736
sg18
F-0.14120102399753376
sg19
F-0.11488464620990849
sg20
I01
sg21
F0.046743495083517765
sg22
F0.486093269509471
sg23
F-0.0759816736976775
sg24
F-0.3155032871652021
ssS'MULLER MARK S'
p72
(dp73
g3
F0.42920785012691287
sg4
F-0.47527547481815763
sg5
F1.1807149961087606
sg6
F0.13927305651307534
sg7
F2.6944148898117737
sg8
F-0.08617209056231624
sg9
F0.4420352936479227
sg10
S's..muller@enron.com'
p74
sg12
F0.2658779782963589
sg13
F-0.22013544845289273
sg14
F-0.7623781894474352
sg15
F-0.3553650979007293
sg16
F-0.18713421462031857
sg17
F-0.29160384553147434
sg18
F-0.24677678390994148
sg19
F-0.2808780899666986
sg20
I00
sg21
F-1.0043388941112412
sg22
F-0.5195657218482678
sg23
F-0.24521449624018837
sg24
F-0.3155032871652021
ssS'JACKSON CHARLENE R'
p75
(dp76
g3
F0.6321283636770291
sg4
F-0.4130198592873879
sg5
F-0.335804305643508
sg6
F-0.16106864130673784
sg7
F-0.5260777063604076
sg8
F-0.08617209056231624
sg9
F-0.34316683557425925
sg10
S'charlene.jackson@enron.com'
p77
sg12
F0.2658779782963589
sg13
F-0.331521431479209
sg14
F-0.5395748483476202
sg15
F-0.1381704378591374
sg16
F-0.3684021288838867
sg17
F-0.228349716033296
sg18
F-0.24521817636031343
sg19
F0.0058378583404843426
sg20
I00
sg21
F0.3101128169098284
sg22
F-0.5166020902430878
sg23
F-0.15494202431394877
sg24
F-0.3155032871652021
ssS'WESTFAHL RICHARD K'
p78
(dp79
g3
F-0.6040349880803908
sg4
F-0.5446751773770485
sg5
F-0.335804305643508
sg6
F-0.13716714350608267
sg7
F-0.047932413884148026
sg8
F-0.08617209056231624
sg9
F-0.5741086382866658
sg10
S'dick.westfahl@enron.com'
p80
sg12
F0.2658779782963589
sg13
F-0.38644862854435424
sg14
F0.37275679757224894
sg15
F-0.5558524764006603
sg16
F-0.4069051010463585
sg17
F-0.3169054973307457
sg18
F0.17239542377340028
sg19
F-0.2808780899666986
sg20
I00
sg21
F0.29036861874706404
sg22
F-0.6321837228451068
sg23
F-0.2329863406538569
sg24
F-0.3155032871652021
ssS'WALTERS GARETH W'
p81
(dp82
g3
F-0.954538055925031
sg4
F-0.5446751773770485
sg5
F-0.23932663083953348
sg6
F-0.21361225944479675
sg7
F-0.5260777063604076
sg8
F-0.08617209056231624
sg9
F-0.5741086382866658
sg10
g27
sg12
F0.2658779782963589
sg13
F-0.28243032465019874
sg14
F-0.023019493930565554
sg15
F-0.5558524764006603
sg16
F-0.19254172854517015
sg17
F-0.3169054973307457
sg18
F-0.24776872030073302
sg19
F-0.2808780899666986
sg20
I00
sg21
F0.3101128169098284
sg22
F-0.6321837228451068
sg23
F-0.4258797071749035
sg24
F-0.3155032871652021
ssS'WALLS JR ROBERT H'
p83
(dp84
g3
F1.0089642501698242
sg4
F-0.20226929195781498
sg5
F-0.335804305643508
sg6
F-0.01971714949031583
sg7
F0.48315971826352466
sg8
F-0.08617209056231624
sg9
F0.21109349093551627
sg10
S'rob.walls@enron.com'
p85
sg12
F0.2658779782963589
sg13
F0.5022479713864395
sg14
F0.3523169271678459
sg15
F-0.2718286901924247
sg16
F0.49740782284960594
sg17
F-0.08602792466239474
sg18
F-0.24776662539811256
sg19
F-0.2808780899666986
sg20
I00
sg21
F0.3101128169098284
sg22
F-0.4197901244738752
sg23
F0.35207442873473804
sg24
F-0.3155032871652021
ssS'KITCHEN LOUISE'
p86
(dp87
g3
F0.5380142429875703
sg4
F3.6932993060905135
sg5
F-0.335804305643508
sg6
F0.16975831167739525
sg7
F-0.5260777063604076
sg8
F-0.08617209056231624
sg9
F2.289569715347174
sg10
S'louise.kitchen@enron.com'
p88
sg12
F0.2658779782963589
sg13
F-0.3603049234416462
sg14
F-0.636018647996661
sg15
F3.6376751905562297
sg16
F-0.3900440436227188
sg17
F2.4156728969905585
sg18
F-0.14938685598701185
sg19
F2.646642645380328
sg20
I00
sg21
F0.3101128169098284
sg22
F2.9923377302900045
sg23
F-0.19231051010315972
sg24
F-0.3155032871652021
ssS'CHAN RONNIE'
p89
(dp90
g3
F-0.954538055925031
sg4
F-0.5446751773770485
sg5
F-0.335804305643508
sg6
F-0.22351565354491607
sg7
F-0.5260777063604076
sg8
F-0.08617209056231624
sg9
F-0.5741086382866658
sg10
g27
sg12
F-0.11057237695854197
sg13
F-0.44848740721921626
sg14
F-0.7623781894474352
sg15
F-0.5558524764006603
sg16
F-0.4069051010463585
sg17
F-0.3169054973307457
sg18
F-0.24776872030073302
sg19
F-0.2808780899666986
sg20
I00
sg21
F0.12951921771441066
sg22
F-0.6321837228451068
sg23
F-0.40961358430250283
sg24
F2.979079045125071
ssS'PEREIRA PAULO V. FERRAZ'
p91
(dp92
g3
F-0.954538055925031
sg4
F-0.5446751773770485
sg5
F-0.335804305643508
sg6
F-0.22034987573979614
sg7
F-0.5260777063604076
sg8
F-0.08617209056231624
sg9
F-0.5741086382866658
sg10
g27
sg12
F0.2658779782963589
sg13
F-0.44848740721921626
sg14
F-0.15088904722063715
sg15
F-0.5558524764006603
sg16
F-0.4069051010463585
sg17
F-0.3169054973307457
sg18
F-0.24776872030073302
sg19
F-0.2808780899666986
sg20
I00
sg21
F0.1250109591339128
sg22
F-0.6321837228451068
sg23
F-0.4258797071749035
sg24
F3.0613235384785273
ssS'SHANKMAN JEFFREY A'
p93
(dp94
g3
F0.7176426663740648
sg4
F1.0989751310213882
sg5
F-0.335804305643508
sg6
F0.1207637590946073
sg7
F0.5086747609209286
sg8
F-0.08617209056231624
sg9
F1.273425783412586
sg10
S'jeffrey.shankman@enron.com'
p95
sg12
F0.2658779782963589
sg13
F-0.11453962250103959
sg14
F3.1544393320832387
sg15
F1.0146319885154658
sg16
F-0.1069134303443609
sg17
F3.9227025322846574
sg18
F-0.24652120579024442
sg19
F0.971617894743627
sg20
I00
sg21
F0.3101128169098284
sg22
F1.076843836142013
sg23
F-0.11010996384631719
sg24
F-0.3155032871652021
ssS'WODRASKA JOHN'
p96
(dp97
g3
F-0.954538055925031
sg4
F-0.5446751773770485
sg5
F-0.335804305643508
sg6
F-0.2020362442818693
sg7
F-0.5260777063604076
sg8
F-0.08617209056231624
sg9
F-0.5741086382866658
sg10
S'john.wodraska@enron.com'
p98
sg12
F0.2658779782963589
sg13
F-0.44848740721921626
sg14
F-0.7623781894474352
sg15
F-0.5558524764006603
sg16
F-0.4069051010463585
sg17
F-0.3169054973307457
sg18
F-0.04918975855265531
sg19
F-0.2808780899666986
sg20
I00
sg21
F0.3101128169098284
sg22
F-0.6321837228451068
sg23
F-0.4258797071749035
sg24
F-0.3155032871652021
ssS'BERGSIEKER RICHARD P'
p99
(dp100
g3
F0.07877076554052644
sg4
F-0.3492333679648779
sg5
F-0.335804305643508
sg6
F-0.15340107353280266
sg7
F-0.18966585360661925
sg8
F-0.08617209056231624
sg9
F-0.34316683557425925
sg10
S'rick.bergsieker@enron.com'
p101
sg12
F0.2658779782963589
sg13
F-0.34223691283679836
sg14
F0.5326210944717822
sg15
F-0.4890233502340166
sg16
F-0.4069051010463585
sg17
F-0.22360565632093263
sg18
F0.19982398378318575
sg19
F-0.2808780899666986
sg20
I00
sg21
F-0.578034233279711
sg22
F-0.40200833484279536
sg23
F-0.09552156677110686
sg24
F-0.3155032871652021
ssS'URQUHART JOHN A'
p102
(dp103
g3
F-0.954538055925031
sg4
F-0.5446751773770485
sg5
F-0.335804305643508
sg6
F-0.197609344411443
sg7
F-0.5260777063604076
sg8
F-0.08617209056231624
sg9
F-0.5741086382866658
sg10
g27
sg12
F0.2658779782963589
sg13
F-0.44848740721921626
sg14
F4.24158220368873
sg15
F-0.5558524764006603
sg16
F-0.4069051010463585
sg17
F-0.3169054973307457
sg18
F-0.24776872030073302
sg19
F-0.2808780899666986
sg20
I00
sg21
F0.2430812641472435
sg22
F-0.6321837228451068
sg23
F-0.4258797071749035
sg24
F0.9073582672945805
ssS'BIBI PHILIPPE A'
p104
(dp105
g3
F0.22010140611549492
sg4
F0.27536395506513967
sg5
F-0.335804305643508
sg6
F0.008472911100383007
sg7
F0.1639557283801382
sg8
F-0.08617209056231624
sg9
F0.3496585725629601
sg10
S'philippe.bibi@enron.com'
p106
sg12
F0.2658779782963589
sg13
F-0.15132144784694232
sg14
F0.08145581796517326
sg15
F-0.17158500094245924
sg16
F-0.10195427133113472
sg17
F-0.25365136783256736
sg18
F0.19811873305012492
sg19
F-0.16015558541630578
sg20
I00
sg21
F0.3101128169098284
sg22
F0.6876202186617094
sg23
F-0.23641796140032023
sg24
F-0.3155032871652021
ssS'PIRO JIM'
p107
(dp108
g3
F-0.954538055925031
sg4
F-0.5150782454034039
sg5
F-0.335804305643508
sg6
F-0.22351565354491607
sg7
F-0.5260777063604076
sg8
F-0.08617209056231624
sg9
F-0.5741086382866658
sg10
S'jim.piro@enron.com'
p109
sg12
F0.2658779782963589
sg13
F-0.4408634693956232
sg14
F-0.7623781894474352
sg15
F-0.5558524764006603
sg16
F-0.4069051010463585
sg17
F-0.29160384553147434
sg18
F-0.24776872030073302
sg19
F-0.2657877768978995
sg20
I00
sg21
F0.3101128169098284
sg22
F-0.6292200912399268
sg23
F-0.40217506526621466
sg24
F-0.3155032871652021
ssS'RIEKER PAULA H'
p110
(dp111
g3
F0.4157197724188478
sg4
F0.1329925064332974
sg5
F0.05042663648362749
sg6
F-0.09898962156412291
sg7
F-0.5260777063604076
sg8
F-0.08617209056231624
sg9
F0.07252840930807238
sg10
S'paula.rieker@enron.com'
p112
sg12
F0.2658779782963589
sg13
F-0.13922233072460694
sg14
F-0.034267987921853725
sg15
F0.02890237755747175
sg16
F-0.06668840082526578
sg17
F-0.18723453185948008
sg18
F-0.24572619024577688
sg19
F0.44345693733565833
sg20
I01
sg21
F0.12729616725460313
sg22
F0.6105657969270301
sg23
F-0.2837395504702342
sg24
F-0.3155032871652021
ssS'WHALEY DAVID A'
p113
(dp114
g3
F-0.954538055925031
sg4
F-0.5446751773770485
sg5
F-0.335804305643508
sg6
F-0.22351565354491607
sg7
F-0.5260777063604076
sg8
F-0.08617209056231624
sg9
F-0.5741086382866658
sg10
g27
sg12
F0.2658779782963589
sg13
F-0.43257712703002593
sg14
F-0.7623781894474352
sg15
F-0.5558524764006603
sg16
F-0.38636649308077436
sg17
F-0.3169054973307457
sg18
F-0.24776872030073302
sg19
F-0.2808780899666986
sg20
I00
sg21
F0.3101128169098284
sg22
F-0.6321837228451068
sg23
F-0.4258797071749035
sg24
F-0.3155032871652021
ssS'BECK SALLY W'
p115
(dp116
g3
F0.3174542050642486
sg4
F3.1881102948162345
sg5
F-0.335804305643508
sg6
F-0.1137220107830534
sg7
F-0.5260777063604076
sg8
F-0.08617209056231624
sg9
F0.07252840930807238
sg10
S'sally.beck@enron.com'
p117
sg12
F0.2658779782963589
sg13
F-0.42817576312793515
sg14
F0.05110239157233921
sg15
F1.8499960655985115
sg16
F-0.4069051010463585
sg17
F6.550911612933968
sg18
F-0.24717586285914062
sg19
F5.543982754589756
sg20
I00
sg21
F0.3101128169098284
sg22
F1.974824212511546
sg23
F-0.36272595895432325
sg24
F-0.3155032871652021
ssS'HAUG DAVID L'
p118
(dp119
g3
F-0.954538055925031
sg4
F-0.2522779011546628
sg5
F-0.335804305643508
sg6
F-0.2234618369084036
sg7
F-0.5260777063604076
sg8
F-0.08617209056231624
sg9
F-0.5741086382866658
sg10
S'david.haug@enron.com'
p120
sg12
F0.2658779782963589
sg13
F-0.09112757058140444
sg14
F-0.7519831804087934
sg15
F-0.4890233502340166
sg16
F-0.4069051010463585
sg17
F-0.286859785819111
sg18
F-0.24776872030073302
sg19
F-0.1752458984851049
sg20
I00
sg21
F0.3101128169098284
sg22
F-0.16689356083185053
sg23
F0.6852372977188435
sg24
F-0.3155032871652021
ssS'ECHOLS JOHN B'
p121
(dp122
g3
F0.047555185781584054
sg4
F-0.5446751773770485
sg5
F-0.335804305643508
sg6
F0.08151976136424322
sg7
F3.6448208335896317
sg8
F-0.08617209056231624
sg9
F-0.3893551961167406
sg10
S'john.echols@enron.com'
p123
sg12
F0.2658779782963589
sg13
F-0.2858774069724338
sg14
F-0.2912107271275239
sg15
F-0.5558524764006603
sg16
F-0.2817739264114897
sg17
F-0.3169054973307457
sg18
F-0.19144202609290384
sg19
F-0.2808780899666986
sg20
I00
sg21
F0.3101128169098284
sg22
F-0.6321837228451068
sg23
F-0.22167472045673123
sg24
F-0.3155032871652021
ssS'MENDELSOHN JOHN'
p124
(dp125
g3
F-0.954538055925031
sg4
F-0.5446751773770485
sg5
F-0.335804305643508
sg6
F-0.2234988854139606
sg7
F-0.5260777063604076
sg8
F-0.08617209056231624
sg9
F-0.5741086382866658
sg10
g27
sg12
F0.2658779782963589
sg13
F-0.44848740721921626
sg14
F-0.7591393234732899
sg15
F-0.5558524764006603
sg16
F-0.4069051010463585
sg17
F-0.3169054973307457
sg18
F-0.24776872030073302
sg19
F-0.2808780899666986
sg20
I00
sg21
F0.12044054289253217
sg22
F-0.6321837228451068
sg23
F-0.4258797071749035
sg24
F3.1447019786178787
ssS'HICKERSON GARY J'
p126
(dp127
g3
F0.21000046899779592
sg4
F0.12891017098865676
sg5
F-0.335804305643508
sg6
F0.012348048823828615
sg7
F-0.39688249036498185
sg8
F-0.08617209056231624
sg9
F0.9962956201576982
sg10
S'gary.hickerson@enron.com'
p128
sg12
F0.2658779782963589
sg13
F-0.3773964111462499
sg14
F1.400856017838255
sg15
F0.11243878526577633
sg16
F-0.4069051010463585
sg17
F-0.2742089599194753
sg18
F-0.24574085456412015
sg19
F-0.2657877768978995
sg20
I00
sg21
F0.3101128169098284
sg22
F0.25690575870888616
sg23
F-0.2048408367336088
sg24
F-0.3155032871652021
ssS'CLINE KENNETH W'
p129
(dp130
g3
F-0.954538055925031
sg4
F-0.5446751773770485
sg5
F-0.335804305643508
sg6
F-0.22351565354491607
sg7
F-0.5260777063604076
sg8
F-0.08617209056231624
sg9
F-0.5741086382866658
sg10
g27
sg12
F-5.2146639650831235
sg13
F-0.41794298289037074
sg14
F-0.7623781894474352
sg15
F-0.5558524764006603
sg16
F-0.4069051010463585
sg17
F-0.3169054973307457
sg18
F-0.24776872030073302
sg19
F-0.2808780899666986
sg20
I00
sg21
F0.3101128169098284
sg22
F-0.6321837228451068
sg23
F-0.09409990963651042
sg24
F-0.3155032871652021
ssS'LEWIS RICHARD'
p131
(dp132
g3
F-0.954538055925031
sg4
F-0.05887725946481257
sg5
F-0.335804305643508
sg6
F-0.22351565354491607
sg7
F-0.5260777063604076
sg8
F-0.08617209056231624
sg9
F-0.5741086382866658
sg10
S'richard.lewis@enron.com'
p133
sg12
F0.2658779782963589
sg13
F-0.3114168895379219
sg14
F-0.7623781894474352
sg15
F-0.38877966098405115
sg16
F-0.22996053484013393
sg17
F-0.27579031315692976
sg18
F-0.24776872030073302
sg19
F-0.2808780899666986
sg20
I00
sg21
F0.3101128169098284
sg22
F0.09785752923089407
sg23
F-0.4258797071749035
sg24
F-0.3155032871652021
ssS'HAYES ROBERT E'
p134
(dp135
g3
F-0.954538055925031
sg4
F-0.2874880443646883
sg5
F-0.32148153139428765
sg6
F-0.22261368671696677
sg7
F-0.5260777063604076
sg8
F-0.08617209056231624
sg9
F-0.5741086382866658
sg10
S'robert.hayes@enron.com'
p136
sg12
F0.2658779782963589
sg13
F-0.42408352134544636
sg14
F-0.7623781894474352
sg15
F-0.28853597173408563
sg16
F-0.4069051010463585
sg17
F-0.2979292584812922
sg18
F-0.24776872030073302
sg19
F-0.2808780899666986
sg20
I00
sg21
F0.3101128169098284
sg22
F-0.5827898627587739
sg23
F-0.3500022027666115
sg24
F-0.3155032871652021
ssS'KOPPER MICHAEL J'
p137
(dp138
g3
F0.2788265059614531
sg4
F-0.5446751773770485
sg5
F-0.335804305643508
sg6
F0.07702046395543487
sg7
F0.598724888430041
sg8
F-0.08617209056231624
sg9
F0.16490513039303498
sg10
S'michael.kopper@enron.com'
p139
sg12
F0.2658779782963589
sg13
F-0.28973079631422916
sg14
F1.822893384807112
sg15
F-0.5558524764006603
sg16
F-0.4069051010463585
sg17
F-0.3169054973307457
sg18
F0.7027954386391719
sg19
F-0.2808780899666986
sg20
I01
sg21
F0.3101128169098284
sg22
F-0.6321837228451068
sg23
F0.06773247844575363
sg24
F-0.3155032871652021
ssS'LEFF DANIEL P'
p140
(dp141
g3
F0.5506830285723162
sg4
F0.8953686507199365
sg5
F-0.335804305643508
sg6
F0.07833653563907503
sg7
F2.0633118531333685
sg8
F-0.08617209056231624
sg9
F0.3496585725629601
sg10
S'dan.leff@enron.com'
p142
sg12
F0.2658779782963589
sg13
F-0.3903814741973924
sg14
F-0.7623781894474352
sg15
F0.5635353868906211
sg16
F-0.4069051010463585
sg17
F-0.2172802433711148
sg18
F-0.24453942791128183
sg19
F-0.06961370700351117
sg20
I00
sg21
F0.3101128169098284
sg22
F2.007424160168526
sg23
F-0.24521449624018837
sg24
F-0.3155032871652021
ssS'CHRISTODOULOU DIOMEDES'
p143
(dp144
g3
F-0.954538055925031
sg4
F-0.5446751773770485
sg5
F-0.335804305643508
sg6
F-0.22351565354491607
sg7
F-0.5260777063604076
sg8
F-0.08617209056231624
sg9
F-0.5741086382866658
sg10
S'diomedes.christodoulou@enron.com'
p145
sg12
F0.2658779782963589
sg13
F0.5310791693694201
sg14
F-0.7623781894474352
sg15
F-0.5558524764006603
sg16
F0.659816535572945
sg17
F-0.3169054973307457
sg18
F-0.24776872030073302
sg19
F-0.2808780899666986
sg20
I00
sg21
F0.3101128169098284
sg22
F-0.6321837228451068
sg23
F0.05054330571719275
sg24
F-0.3155032871652021
ssS'BERBERIAN DAVID'
p146
(dp147
g3
F0.2363607806702232
sg4
F-0.5446751773770485
sg5
F-0.335804305643508
sg6
F-0.19762996468059096
sg7
F-0.5260777063604076
sg8
F-0.08617209056231624
sg9
F-0.5741086382866658
sg10
S'david.berberian@enron.com'
p148
sg12
F0.2658779782963589
sg13
F-0.046593839235180845
sg14
F-0.5021309315789547
sg15
F-0.5558524764006603
sg16
F-0.06894411495605107
sg17
F-0.3169054973307457
sg18
F-0.24776872030073302
sg19
F-0.2808780899666986
sg20
I00
sg21
F0.3101128169098284
sg22
F-0.6321837228451068
sg23
F0.009697597912837402
sg24
F-0.3155032871652021
ssS'DETMERING TIMOTHY J'
p149
(dp150
g3
F0.2029182659452122
sg4
F-0.5446751773770485
sg5
F1.2389758174267487
sg6
F-0.08703858941833999
sg7
F0.24968895927111195
sg8
F-0.08617209056231624
sg9
F-0.18150757367557474
sg10
S'timothy.detmering@enron.com'
p151
sg12
F-3.388079524151303
sg13
F-0.1216584567152309
sg14
F0.38118222595093754
sg15
F-0.5558524764006603
sg16
F0.014998951326351886
sg17
F-0.3169054973307457
sg18
F-0.24661128660292453
sg19
F-0.2808780899666986
sg20
I00
sg21
F-1.1071568060438364
sg22
F-0.6321837228451068
sg23
F-0.26799508606703165
sg24
F-0.3155032871652021
ssS'WAKEHAM JOHN'
p152
(dp153
g3
F-0.954538055925031
sg4
F-0.5446751773770485
sg5
F-0.335804305643508
sg6
F-0.1993750965799633
sg7
F-0.5260777063604076
sg8
F-0.08617209056231624
sg9
F-0.5741086382866658
sg10
g27
sg12
F0.2658779782963589
sg13
F-0.44848740721921626
sg14
F1.5086139641672494
sg15
F-0.5558524764006603
sg16
F-0.4069051010463585
sg17
F-0.3169054973307457
sg18
F-0.24776872030073302
sg19
F-0.2808780899666986
sg20
I00
sg21
F0.3101128169098284
sg22
F-0.6321837228451068
sg23
F-0.4258797071749035
sg24
F3.329735412975127
ssS'POWERS WILLIAM'
p154
(dp155
g3
F-0.954538055925031
sg4
F-0.21145454670825642
sg5
F-0.335804305643508
sg6
F-0.22351565354491607
sg7
F-0.5260777063604076
sg8
F-0.08617209056231624
sg9
F-0.5741086382866658
sg10
S'ken.powers@enron.com'
p156
sg12
F0.2658779782963589
sg13
F-0.44848740721921626
sg14
F-0.7623781894474352
sg15
F-0.5558524764006603
sg16
F-0.4069051010463585
sg17
F-0.27579031315692976
sg18
F-0.24776872030073302
sg19
F-0.2808780899666986
sg20
I00
sg21
F0.27811990322016394
sg22
F-0.620329196424387
sg23
F-0.4258797071749035
sg24
F0.26814579381025727
ssS'GOLD JOSEPH'
p157
(dp158
g3
F0.5459212367683275
sg4
F-0.5446751773770485
sg5
F-0.335804305643508
sg6
F0.019732484440617037
sg7
F0.04279893596202488
sg8
F-0.08617209056231624
sg9
F0.11871676985055367
sg10
S'joe.gold@enron.com'
p159
sg12
F0.2658779782963589
sg13
F-0.3070437302087875
sg14
F-0.7623781894474352
sg15
F-0.5558524764006603
sg16
F-0.3160867046435044
sg17
F-0.3169054973307457
sg18
F0.6103955687581968
sg19
F-0.2808780899666986
sg20
I00
sg21
F0.3101128169098284
sg22
F-0.6321837228451068
sg23
F-0.2048408367336088
sg24
F-0.3155032871652021
ssS'BANNANTINE JAMES M'
p160
(dp161
g3
F-0.9519152214094392
sg4
F-0.25584994466872335
sg5
F-0.335804305643508
sg6
F-0.1197121989705309
sg7
F-0.5260777063604076
sg8
F-0.08617209056231624
sg9
F-0.5741086382866658
sg10
S'james.bannantine@enron.com'
p162
sg12
F-6.231219092609712
sg13
F0.3966000878513583
sg14
F0.4697258187306106
sg15
F0.09573150372411542
sg16
F0.434911309235494
sg17
F-0.2710462534445664
sg18
F0.6577770287766282
sg19
F-0.2808780899666986
sg20
I00
sg21
F0.3007818551114257
sg22
F-0.17282082404221047
sg23
F0.45485217164929426
sg24
F-0.3155032871652021
ssS'DUNCAN JOHN H'
p163
(dp164
g3
F-0.954538055925031
sg4
F-0.5446751773770485
sg5
F-0.335804305643508
sg6
F-0.21473595081517755
sg7
F-0.5260777063604076
sg8
F-0.08617209056231624
sg9
F-0.5741086382866658
sg10
g27
sg12
F0.2658779782963589
sg13
F-0.3885728358104407
sg14
F-0.7623781894474352
sg15
F-0.5558524764006603
sg16
F-0.3295612781244406
sg17
F-0.3169054973307457
sg18
F-0.24776872030073302
sg19
F-0.2808780899666986
sg20
I00
sg21
F0.2644086544960221
sg22
F-0.6321837228451068
sg23
F-0.4258797071749035
sg24
F3.102745947539757
ssS'SHAPIRO RICHARD S'
p165
(dp166
g3
F0.5250045439018458
sg4
F7.185737278980579
sg5
F-0.335804305643508
sg6
F-0.10369738762805332
sg7
F-0.5260777063604076
sg8
F-0.08617209056231624
sg9
F0.026340048765591078
sg10
S'richard.shapiro@enron.com'
p167
sg12
F0.2658779782963589
sg13
F-0.28941345457622275
sg14
F2.252546463661121
sg15
F0.6804863576822474
sg16
F-0.2804425931959488
sg17
F1.6044386861764215
sg18
F-0.2470302671270181
sg19
F0.6999922595052431
sg20
I00
sg21
F0.3101128169098284
sg22
F3.8399363693714776
sg23
F-0.23587575730457352
sg24
F-0.3155032871652021
ssS'SHERRIFF JOHN R'
p168
(dp169
g3
F1.4031537335833912
sg4
F1.0816252053816655
sg5
F-0.335804305643508
sg6
F0.2676759256900461
sg7
F0.5086747609209286
sg8
F-0.08617209056231624
sg9
F0.8115421779877731
sg10
S'john.sherriff@enron.com'
p170
sg12
F0.2658779782963589
sg13
F0.055807456199138086
sg14
F-0.7623781894474352
sg15
F-0.08804859323415466
sg16
F-0.025011159109815616
sg17
F-0.1714209994849355
sg18
F1.6923059321961946
sg19
F0.06619911061568076
sg20
I00
sg21
F0.3101128169098284
sg22
F1.4453220323860567
sg23
F0.2222716702160978
sg24
F-0.3155032871652021
ssS'SHELBY REX'
p171
(dp172
g3
F0.2103083908696474
sg4
F-0.42985949299653053
sg5
F-0.335804305643508
sg6
F0.0035208741557769584
sg7
F-0.5260777063604076
sg8
F-0.08617209056231624
sg9
F-0.3893551961167406
sg10
S'rex.shelby@enron.com'
p173
sg12
F0.2658779782963589
sg13
F-0.046593839235180845
sg14
F-0.261579480310006
sg15
F-0.3386578163590684
sg16
F-0.06894411495605107
sg17
F-0.2552327210700218
sg18
F1.4002115649217426
sg19
F-0.06961370700351117
sg20
I01
sg21
F0.3024948471186951
sg22
F-0.5422868974879809
sg23
F0.009697597912837402
sg24
F-0.3155032871652021
ssS'LEMAISTRE CHARLES'
p174
(dp175
g3
F-0.954538055925031
sg4
F-0.5446751773770485
sg5
F-0.335804305643508
sg6
F-0.21360296899386197
sg7
F-0.5260777063604076
sg8
F-0.08617209056231624
sg9
F-0.5741086382866658
sg10
g27
sg12
F0.2658779782963589
sg13
F-0.3819442776587256
sg14
F-0.7623781894474352
sg15
F-0.5558524764006603
sg16
F-0.32100446104540187
sg17
F-0.3169054973307457
sg18
F-0.24776872030073302
sg19
F-0.2808780899666986
sg20
I00
sg21
F0.2644086544960221
sg22
F-0.6321837228451068
sg23
F-0.4258797071749035
sg24
F3.4362597080971624
ssS'DEFFNER JOSEPH M'
p176
(dp177
g3
F0.17883987528739845
sg4
F-0.18032673894287155
sg5
F-0.335804305643508
sg6
F-0.08657791900979309
sg7
F0.09980511421729096
sg8
F-0.08617209056231624
sg9
F-0.019848311776890216
sg10
S'joseph.deffner@enron.com'
p178
sg12
F0.2658779782963589
sg13
F-0.42282753141945145
sg14
F0.1485747500104667
sg15
F1.365484900890345
sg16
F-0.4032895503947456
sg17
F-0.19988535775911576
sg18
F-0.2210031969703256
sg19
F-0.2205168376915022
sg20
I00
sg21
F0.3101128169098284
sg22
F-0.08687550749199115
sg23
F-0.3548053693634063
sg24
F-0.3155032871652021
ssS'KISHKILL JOSEPH G'
p179
(dp180
g3
F0.0035718455505148075
sg4
F-0.5446751773770485
sg5
F-0.335804305643508
sg6
F-0.1436522181531108
sg7
F-0.5260777063604076
sg8
F-0.08617209056231624
sg9
F-0.5741086382866658
sg10
S'joe.kishkill@enron.com'
p181
sg12
F0.2658779782963589
sg13
F-0.2817829088241085
sg14
F1.7835236558376035
sg15
F-0.5558524764006603
sg16
F-0.4069051010463585
sg17
F-0.3169054973307457
sg18
F0.2396700790757944
sg19
F-0.2808780899666986
sg20
I00
sg21
F0.21679954259280831
sg22
F-0.6321837228451068
sg23
F0.0924443571681678
sg24
F-0.3155032871652021
ssS'WHALLEY LAWRENCE G'
p182
(dp183
g3
F1.8517519120321415
sg4
F2.526771952784451
sg5
F-0.335804305643508
sg6
F0.3064449774409147
sg7
F0.9825890094571446
sg8
F-0.08617209056231624
sg9
F2.197192994262212
sg10
S'greg.whalley@enron.com'
p184
sg12
F0.2658779782963589
sg13
F0.5312809529427995
sg14
F0.5033618795567
sg15
F2.55170189034827
sg16
F0.2761256370834052
sg17
F0.5623269026939333
sg18
F0.06754135781374371
sg19
F0.08128942368447986
sg20
I00
sg21
F0.3101128169098284
sg22
F3.2402949079233956
sg23
F0.9753204978460625
sg24
F-0.3155032871652021
ssS'HAYSLETT RODERICK J'
p185
(dp186
g3
F-0.954538055925031
sg4
F0.8070881467295827
sg5
F-0.335804305643508
sg6
F-0.22351565354491607
sg7
F-0.5260777063604076
sg8
F-0.08617209056231624
sg9
F-0.5741086382866658
sg10
S'rod.hayslett@enron.com'
p187
sg12
F0.2658779782963589
sg13
F-0.3926160822204796
sg14
F-0.7623781894474352
sg15
F0.02890237755747175
sg16
F-0.4069051010463585
sg17
F1.360910287608435
sg18
F-0.24776872030073302
sg19
F0.29255380664766734
sg20
I00
sg21
F0.3101128169098284
sg22
F-0.06810584065918464
sg23
F-0.25216242580352277
sg24
F-0.3155032871652021
ssS'MCCONNELL MICHAEL S'
p188
(dp189
g3
F1.05266166294846
sg4
F1.1540866595240369
sg5
F-0.335804305643508
sg6
F0.014565067651778903
sg7
F0.5086747609209286
sg8
F-0.08617209056231624
sg9
F0.4420352936479227
sg10
S'mike.mcconnell@enron.com'
p190
sg12
F0.2658779782963589
sg13
F0.05134259171564835
sg14
F1.0182102640684618
sg15
F0.981217425432144
sg16
F-0.06923247686208948
sg17
F4.01916507976938
sg18
F-0.2472030965932067
sg19
F2.646642645380328
sg20
I00
sg21
F0.3101128169098284
sg22
F1.5302794717345494
sg23
F0.31489987361563243
sg24
F-0.3155032871652021
ssS'DELAINEY DAVID W'
p191
(dp192
g3
F1.0533489885552714
sg4
F1.033657763907138
sg5
F-0.335804305643508
sg6
F0.3144217359538869
sg7
F1.8908263573896815
sg8
F-0.08617209056231624
sg9
F2.197192994262212
sg10
S'david.delainey@enron.com'
p193
sg12
F0.2658779782963589
sg13
F0.13401938168314392
sg14
F1.1234734082281819
sg15
F0.5468281053489601
sg16
F0.06976857256790951
sg17
F4.536267588416988
sg18
F-0.24602890367443447
sg19
F8.909122568931956
sg20
I01
sg21
F0.3101128169098284
sg22
F1.4393947691756968
sg23
F0.2371667483510096
sg24
F-0.3155032871652021
ssS'SULLIVAN-SHAKLOVITZ COLLEEN'
p194
(dp195
g3
F-0.059480656315927374
sg4
F-0.5446751773770485
sg5
F-0.008377518312976836
sg6
F-0.11029043544265282
sg7
F0.5086747609209286
sg8
F-0.08617209056231624
sg9
F-0.48173191720170316
sg10
g27
sg12
F0.2658779782963589
sg13
F-0.2289148067537676
sg14
F-0.7623781894474352
sg15
F-0.5558524764006603
sg16
F-0.12345845476996864
sg17
F-0.3169054973307457
sg18
F-0.24759903318847512
sg19
F-0.2808780899666986
sg20
I00
sg21
F0.3101128169098284
sg22
F-0.6321837228451068
sg23
F-0.4258797071749035
sg24
F-0.3155032871652021
ssS'WROBEL BRUCE'
p196
(dp197
g3
F-0.954538055925031
sg4
F-0.5446751773770485
sg5
F-0.335804305643508
sg6
F-0.22351565354491607
sg7
F-0.5260777063604076
sg8
F-0.08617209056231624
sg9
F-0.5741086382866658
sg10
g27
sg12
F0.2658779782963589
sg13
F-0.42606396587394946
sg14
F-0.7623781894474352
sg15
F-0.5558524764006603
sg16
F-0.37795864218118985
sg17
F-0.3169054973307457
sg18
F-0.24776872030073302
sg19
F-0.2808780899666986
sg20
I00
sg21
F0.3101128169098284
sg22
F-0.6321837228451068
sg23
F-0.4258797071749035
sg24
F-0.3155032871652021
ssS'LINDHOLM TOD A'
p198
(dp199
g3
F0.34564555215322124
sg4
F-0.5446751773770485
sg5
F0.031350593855253746
sg6
F-0.12427902209588965
sg7
F-0.19946425708488494
sg8
F-0.08617209056231624
sg9
F-0.3893551961167406
sg10
S'tod.lindholm@enron.com'
p200
sg12
F0.2658779782963589
sg13
F0.04536789614955631
sg14
F0.5009327300760911
sg15
F-0.5558524764006603
sg16
F0.12349792719316698
sg17
F-0.3169054973307457
sg18
F-0.2450139233548178
sg19
F-0.2808780899666986
sg20
I00
sg21
F0.3101128169098284
sg22
F-0.6321837228451068
sg23
F-0.16788326347537041
sg24
F-0.3155032871652021
ssS'MEYER JEROME J'
p201
(dp202
g3
F-0.954538055925031
sg4
F-0.5446751773770485
sg5
F-0.335804305643508
sg6
F-0.2232719491551511
sg7
F-0.5260777063604076
sg8
F-0.08617209056231624
sg9
F-0.5741086382866658
sg10
g27
sg12
F0.2658779782963589
sg13
F-0.44848740721921626
sg14
F-0.7153052116745541
sg15
F-0.5558524764006603
sg16
F-0.4069051010463585
sg17
F-0.3169054973307457
sg18
F-0.24776872030073302
sg19
F-0.2808780899666986
sg20
I00
sg21
F0.2400099444330357
sg22
F-0.6321837228451068
sg23
F-0.4258797071749035
sg24
F0.9633885790682245
ssS'LAY KENNETH L'
p203
(dp204
g3
F4.941731400247041
sg4
F1.635802241991632
sg5
F0.029256421109858384
sg6
F11.509620635275319
sg7
F6.192827535878916
sg8
F11.661763418546235
sg9
F5.892261837660715
sg10
S'kenneth.lay@enron.com'
p205
sg12
F0.2658779782963589
sg13
F7.466534180464807
sg14
F1.4223682154908548
sg15
F1.4991431532236323
sg16
F6.739390338765447
sg17
F-0.2599767807823852
sg18
F10.603542994417628
sg19
F-0.03943308086591297
sg20
I01
sg21
F-0.2383371320558474
sg22
F1.7495882105178677
sg23
F6.971394735486188
sg24
F-0.3155032871652021
ssS'BUTTS ROBERT H'
p206
(dp207
g3
F0.48343509120189787
sg4
F-0.5446751773770485
sg5
F-0.335804305643508
sg6
F-0.07944772451370788
sg7
F-0.19946425708488494
sg8
F-0.08617209056231624
sg9
F0.11871676985055367
sg10
S'bob.butts@enron.com'
p208
sg12
F0.2658779782963589
sg13
F-0.38118017548509003
sg14
F-0.5564475893345524
sg15
F-0.5558524764006603
sg16
F-0.4069051010463585
sg17
F-0.3169054973307457
sg18
F-0.08996389570613121
sg19
F-0.2808780899666986
sg20
I00
sg21
F0.17300032966840945
sg22
F-0.6321837228451068
sg23
F-0.21660546294048955
sg24
F-0.3155032871652021
ssS'OLSON CINDY K'
p209
(dp210
g3
F0.8549318323809828
sg4
F0.05951046842976592
sg5
F-0.19598409165626915
sg6
F-0.07378564786168336
sg7
F-0.3394414496315375
sg8
F-0.08617209056231624
sg9
F0.11871676985055367
sg10
S'cindy.olson@enron.com'
p211
sg12
F0.2658779782963589
sg13
F-0.028358051713489596
sg14
F0.6336386980978255
sg15
F-0.221706845567442
sg16
F-0.06631473705669076
sg17
F-0.23467512898311385
sg18
F-0.24675059762718565
sg19
F-0.054523393934712075
sg20
I00
sg21
F0.3101128169098284
sg22
F0.21343916183291314
sg23
F0.06006394861468935
sg24
F-0.3155032871652021
ssS'MCDONALD REBECCA'
p212
(dp213
g3
F-0.954538055925031
sg4
F-0.0884741914384572
sg5
F-0.335804305643508
sg6
F-0.22351565354491607
sg7
F-0.5260777063604076
sg8
F-0.08617209056231624
sg9
F-0.5741086382866658
sg10
S'rebecca.mcdonald@enron.com'
p214
sg12
F0.2658779782963589
sg13
F-0.17589166011666077
sg14
F-0.7623781894474352
sg15
F0.34634072684902917
sg16
F-0.2493461112882109
sg17
F-0.29634790524383775
sg18
F-0.24776872030073302
sg19
F-0.2657877768978995
sg20
I00
sg21
F0.3101128169098284
sg22
F0.07908786239808754
sg23
F0.04219226019443994
sg24
F-0.3155032871652021
ssS'CUMBERLAND MICHAEL S'
p215
(dp216
g3
F0.06214848306540175
sg4
F-0.5446751773770485
sg5
F-0.335804305643508
sg6
F-0.13197570750263263
sg7
F-0.012828000356014849
sg8
F-0.08617209056231624
sg9
F-0.27388429476053733
sg10
g27
sg12
F0.2658779782963589
sg13
F-0.4149739277874993
sg14
F-0.2733969642697251
sg15
F-0.5558524764006603
sg16
F-0.4069051010463585
sg17
F-0.3169054973307457
sg18
F-0.24702188751653623
sg19
F-0.2808780899666986
sg20
I00
sg21
F0.3101128169098284
sg22
F-0.6321837228451068
sg23
F-0.3216783026743802
sg24
F-0.3155032871652021
ssS'GAHN ROBERT S'
p217
(dp218
g3
F0.10123806497597448
sg4
F-0.5446751773770485
sg5
F-0.20424923735416115
sg6
F-0.12148101018996874
sg7
F-0.5260777063604076
sg8
F-0.08617209056231624
sg9
F-0.103107450490767
sg10
g27
sg12
F0.2658779782963589
sg13
F-0.3971378393568471
sg14
F0.33358402666873566
sg15
F-0.5558524764006603
sg16
F-0.389587366578163
sg17
F-0.3169054973307457
sg18
F-0.16758946485625695
sg19
F-0.2808780899666986
sg20
I00
sg21
F0.30820786742042094
sg22
F-0.6321837228451068
sg23
F-0.30793277740050623
sg24
F-0.3155032871652021
ssS'BADUM JAMES P'
p219
(dp220
g3
F-0.954538055925031
sg4
F-0.5446751773770485
sg5
F-0.013798259276788028
sg6
F-0.20284258744409958
sg7
F-0.5260777063604076
sg8
F-0.08617209056231624
sg9
F-0.5741086382866658
sg10
g27
sg12
F0.2658779782963589
sg13
F-0.4069353021569532
sg14
F-0.6860897652185819
sg15
F-0.5558524764006603
sg16
F-0.3532654174034261
sg17
F-0.3169054973307457
sg18
F-0.24776872030073302
sg19
F-0.2808780899666986
sg20
I00
sg21
F0.3101128169098284
sg22
F-0.6321837228451068
sg23
F-0.4258797071749035
sg24
F-0.3155032871652021
ssS'HERMANN ROBERT J'
p221
(dp222
g3
F0.48974199096999843
sg4
F-0.5446751773770485
sg5
F-0.335804305643508
sg6
F-0.07651568085832533
sg7
F-0.24612332126710246
sg8
F-0.08617209056231624
sg9
F0.07252840930807238
sg10
S'robert.hermann@enron.com'
p223
sg12
F0.2658779782963589
sg13
F-0.34080524871353235
sg14
F0.29587749914540973
sg15
F-0.5558524764006603
sg16
F-0.36789510293510197
sg17
F-0.3169054973307457
sg18
F0.18843295078439184
sg19
F-0.2808780899666986
sg20
I00
sg21
F-0.20177380212480234
sg22
F-0.6321837228451068
sg23
F-0.1850288393866208
sg24
F-0.3155032871652021
ssS'SCRIMSHAW MATTHEW'
p224
(dp225
g3
F-0.954538055925031
sg4
F-0.5446751773770485
sg5
F-0.335804305643508
sg6
F-0.22351565354491607
sg7
F-0.5260777063604076
sg8
F-0.08617209056231624
sg9
F-0.5741086382866658
sg10
S'matthew.scrimshaw@enron.com'
p226
sg12
F0.2658779782963589
sg13
F-0.3260703739561758
sg14
F-0.7623781894474352
sg15
F-0.5558524764006603
sg16
F-0.2488767429909363
sg17
F-0.3169054973307457
sg18
F-0.24776872030073302
sg19
F-0.2808780899666986
sg20
I00
sg21
F0.3101128169098284
sg22
F-0.6321837228451068
sg23
F-0.4258797071749035
sg24
F-0.3155032871652021
ssS'GATHMANN WILLIAM D'
p227
(dp228
g3
F-0.954538055925031
sg4
F-0.5446751773770485
sg5
F-0.335804305643508
sg6
F-0.22351565354491607
sg7
F-0.5260777063604076
sg8
F-0.08617209056231624
sg9
F-0.5741086382866658
sg10
g27
sg12
F-0.5739913463248569
sg13
F-0.13495570409675348
sg14
F-0.7623781894474352
sg15
F-0.5558524764006603
sg16
F-0.04202825652590038
sg17
F-0.3169054973307457
sg18
F-0.24776872030073302
sg19
F-0.2808780899666986
sg20
I00
sg21
F0.3101128169098284
sg22
F-0.6321837228451068
sg23
F-0.2935794022484985
sg24
F-0.3155032871652021
ssS'HAEDICKE MARK E'
p229
(dp230
g3
F1.1026274852612148
sg4
F1.501085172318491
sg5
F3.5458402311731763
sg6
F0.21370939568259695
sg7
F1.3092024587326672
sg8
F-0.08617209056231624
sg9
F0.48822365419040403
sg10
S'mark.haedicke@enron.com'
p231
sg12
F-3.5592217882454675
sg13
F-0.31905355971159244
sg14
F0.9045216915300531
sg15
F2.4514582010983044
sg16
F-0.2802526405118123
sg17
F2.7525011365683585
sg18
F-0.1929011257680597
sg19
F0.6396310072300467
sg20
I00
sg21
F-1.3982795234543068
sg22
F1.192425468744032
sg23
F-0.1632118895561924
sg24
F-0.3155032871652021
ssS'BOWEN JR RAYMOND M'
p232
(dp233
g3
F0.5773787551408675
sg4
F0.40344722964073965
sg5
F-0.335804305643508
sg6
F0.0789439271934823
sg7
F1.2923062784110027
sg8
F-0.08617209056231624
sg9
F0.6729770963603292
sg10
S'raymond.bowen@enron.com'
p234
sg12
F0.2658779782963589
sg13
F-0.4078639578676657
sg14
F0.6799457278362803
sg15
F1.7831669394318679
sg16
F-0.4069051010463585
sg17
F-0.2742089599194753
sg18
F-0.24607080172684384
sg19
F-0.054523393934712075
sg20
I01
sg21
F0.30858995421820035
sg22
F0.9415046595054608
sg23
F-0.2995717096209004
sg24
F-0.3155032871652021
ssS'GILLIS JOHN'
p235
(dp236
g3
F-0.954538055925031
sg4
F-0.5446751773770485
sg5
F-0.335804305643508
sg6
F-0.22351565354491607
sg7
F-0.5260777063604076
sg8
F-0.08617209056231624
sg9
F-0.5741086382866658
sg10
g27
sg12
F0.2658779782963589
sg13
F-0.43468473389031526
sg14
F-0.7623781894474352
sg15
F-0.5558524764006603
sg16
F-0.4048655543184404
sg17
F-0.3169054973307457
sg18
F-0.24776872030073302
sg19
F-0.2808780899666986
sg20
I00
sg21
F0.3101128169098284
sg22
F-0.6321837228451068
sg23
F-0.3878763114140557
sg24
F-0.3155032871652021
ssS'FITZGERALD JAY L'
p237
(dp238
g3
F0.14054759108072684
sg4
F-0.06704193035409385
sg5
F-0.335804305643508
sg6
F-0.06321492746880919
sg7
F0.5123962878801022
sg8
F-0.08617209056231624
sg9
F-0.25079011448929667
sg10
S'jay.fitzgerald@enron.com'
p239
sg12
F0.2658779782963589
sg13
F-0.18719444126769622
sg14
F-0.24000162996874114
sg15
F-0.5391451948589994
sg16
F-0.26866178181967254
sg17
F-0.29160384553147434
sg18
F0.0511885479583717
sg19
F-0.16015558541630578
sg20
I00
sg21
F0.3101128169098284
sg22
F0.08205149400326751
sg23
F0.05357253285100858
sg24
F-0.3155032871652021
ssS'MORAN MICHAEL P'
p240
(dp241
g3
F-0.954538055925031
sg4
F-0.2017590000272349
sg5
F-0.335804305643508
sg6
F-0.22351565354491607
sg7
F-0.5260777063604076
sg8
F-0.08617209056231624
sg9
F-0.5741086382866658
sg10
S'michael.moran@enron.com'
p242
sg12
F0.2658779782963589
sg13
F-0.412846335972658
sg14
F-0.7623781894474352
sg15
F-0.5558524764006603
sg16
F-0.39451781423277926
sg17
F-0.286859785819111
sg18
F-0.24776872030073302
sg19
F-0.2808780899666986
sg20
I00
sg21
F0.3101128169098284
sg22
F-0.5067233182258212
sg23
F-0.34489886957706967
sg24
F-0.3155032871652021
ssS'REDMOND BRIAN L'
p243
(dp244
g3
F-0.42205316181617425
sg4
F0.30802263862226475
sg5
F-0.335804305643508
sg6
F-0.21087962058996576
sg7
F-0.5260777063604076
sg8
F-0.08617209056231624
sg9
F-0.5741086382866658
sg10
S'brian.redmond@enron.com'
p245
sg12
F0.2658779782963589
sg13
F0.8231881293951085
sg14
F-0.4409207415135208
sg15
F2.8524329580981664
sg16
F1.1553754173928497
sg17
F0.032573568146689644
sg18
F-0.24776872030073302
sg19
F0.45854725040445743
sg20
I00
sg21
F0.3101128169098284
sg22
F0.41792974259033155
sg23
F-0.2348128969653141
sg24
F-0.3155032871652021
ssS'BAZELIDES PHILIP J'
p246
(dp247
g3
F-0.5101518087948206
sg4
F-0.5446751773770485
sg5
F0.8960406374284272
sg6
F-0.12606380835900804
sg7
F-0.3511062156770919
sg8
F-0.08617209056231624
sg9
F-0.5741086382866658
sg10
g27
sg12
F0.2658779782963589
sg13
F-0.19067488557051399
sg14
F-0.7623781894474352
sg15
F-0.5558524764006603
sg16
F-0.07409447497335324
sg17
F-0.3169054973307457
sg18
F-0.24685324785558857
sg19
F-0.2808780899666986
sg20
I00
sg21
F0.3101128169098284
sg22
F-0.6321837228451068
sg23
F-0.4258797071749035
sg24
F-0.3155032871652021
ssS'BELDEN TIMOTHY N'
p248
(dp249
g3
F0.22215788433107433
sg4
F3.5330676398883685
sg5
F3.5215269575638355
sg6
F0.3998090242155162
sg7
F-0.5260777063604076
sg8
F-0.08617209056231624
sg9
F4.27566829490666
sg10
S'tim.belden@enron.com'
p250
sg12
F0.2658779782963589
sg13
F-0.2694762060448141
sg14
F-0.38257738551979653
sg15
F3.2534077150980285
sg16
F-0.208601988727582
sg17
F0.44846946959721223
sg18
F-0.027072824137066038
sg19
F1.3488757214636047
sg20
I01
sg21
F-3.9576212103026327
sg22
F4.821886307887777
sg23
F-0.3469198576714748
sg24
F-0.3155032871652021
ssS'DURAN WILLIAM D'
p251
(dp252
g3
F0.20397399807727437
sg4
F-0.0833712721326564
sg5
F-0.335804305643508
sg6
F0.013647239078331168
sg7
F1.5366597975332759
sg8
F-0.08617209056231624
sg9
F0.11871676985055367
sg10
S'w.duran@enron.com'
p253
sg12
F0.2658779782963589
sg13
F-0.18402360259144537
sg14
F-0.19809333037084842
sg15
F1.2151193670153968
sg16
F-0.1048389306581351
sg17
F-0.2979292584812922
sg18
F-0.24612631664628623
sg19
F-0.2356071507603013
sg20
I00
sg21
F0.3101128169098284
sg22
F-0.040445279010838185
sg23
F-0.3311488342876118
sg24
F-0.3155032871652021
ssS'THORN TERENCE H'
p254
(dp255
g3
F0.2666635920233202
sg4
F-0.40893752384274723
sg5
F-0.3059641431391029
sg6
F-0.120249685546563
sg7
F-0.15280519290266742
sg8
F-0.08617209056231624
sg9
F-0.5741086382866658
sg10
S'terence.thorn@enron.com'
p256
sg12
F0.2658779782963589
sg13
F0.3279919000434954
sg14
F0.24746958336967148
sg15
F-0.5558524764006603
sg16
F0.519447327489188
sg17
F-0.2520700145951129
sg18
F0.19910438473305506
sg19
F-0.2808780899666986
sg20
I00
sg21
F0.3101128169098284
sg22
F-0.5600686871190608
sg23
F-0.2428131634982123
sg24
F-0.3155032871652021
ssS'FASTOW ANDREW S'
p257
(dp258
g3
F1.4686861062392085
sg4
F-0.5446751773770485
sg5
F-0.335804305643508
sg6
F0.051128543691092515
sg7
F2.714030360393978
sg8
F-0.08617209056231624
sg9
F0.6267887358178479
sg10
S'andrew.fastow@enron.com'
p259
sg12
F0.2658779782963589
sg13
F-0.159283840546012
sg14
F0.4614098114996972
sg15
F-0.5558524764006603
sg16
F-0.4069051010463585
sg17
F-0.3169054973307457
sg18
F0.042861310042012025
sg19
F-0.2808780899666986
sg20
I01
sg21
F-2.223826496468904
sg22
F-0.6321837228451068
sg23
F0.4733231910293524
sg24
F-0.3155032871652021
ssS'FOY JOE'
p260
(dp261
g3
F-0.954538055925031
sg4
F-0.5155885373339839
sg5
F-0.008805708272945991
sg6
F-0.20292314245159512
sg7
F-0.5260777063604076
sg8
F-0.08617209056231624
sg9
F-0.5741086382866658
sg10
S'tracy.foy@enron.com'
p262
sg12
F0.2658779782963589
sg13
F-0.393136496883772
sg14
F-0.7623781894474352
sg15
F-0.5558524764006603
sg16
F-0.3354525160258717
sg17
F-0.29634790524383775
sg18
F-0.24776872030073302
sg19
F-0.2808780899666986
sg20
I00
sg21
F0.3101128169098284
sg22
F-0.6302079684416535
sg23
F-0.4258797071749035
sg24
F-0.3155032871652021
ssS'CALGER CHRISTOPHER F'
p263
(dp264
g3
F0.3661663454701797
sg4
F0.7810632582699987
sg5
F-0.335804305643508
sg6
F-0.03778628347120277
sg7
F0.174375630593311
sg8
F-0.08617209056231624
sg9
F0.5806003752753666
sg10
S'christopher.calger@enron.com'
p265
sg12
F0.2658779782963589
sg13
F-0.42817576312793515
sg14
F0.021471144754821335
sg15
F2.768896550389862
sg16
F-0.4069051010463585
sg17
F-0.08919063113730366
sg18
F-0.24725965896395932
sg19
F0.09637973675327896
sg20
I01
sg21
F-0.16978088843513792
sg22
F1.5292915945328227
sg23
F-0.36272595895432325
sg24
F-0.3155032871652021
ssS'RICE KENNETH D'
p266
(dp267
g3
F1.358373095648421
sg4
F-0.08286098020207631
sg5
F-0.335804305643508
sg6
F-0.16629440665937373
sg7
F2.491851094933662
sg8
F-0.08617209056231624
sg9
F1.0424839807001796
sg10
S'ken.rice@enron.com'
p268
sg12
F0.2658779782963589
sg13
F3.18467079762438
sg14
F0.26508638816147495
sg15
F0.14585334834909816
sg16
F3.71133878889434
sg17
F-0.28844113905656543
sg18
F-0.06463338067074426
sg19
F-0.2205168376915022
sg20
I01
sg21
F-6.096488259276933
sg22
F0.22134217944672643
sg23
F0.9513607895004651
sg24
F-0.3155032871652021
ssS'LOCKHART EUGENE E'
p269
(dp270
g3
F-0.954538055925031
sg4
F-0.5446751773770485
sg5
F-0.335804305643508
sg6
F-0.22351565354491607
sg7
F-0.5260777063604076
sg8
F-0.08617209056231624
sg9
F-0.5741086382866658
sg10
g27
sg12
F0.2658779782963589
sg13
F-0.44848740721921626
sg14
F-0.7623781894474352
sg15
F-0.5558524764006603
sg16
F-0.4069051010463585
sg17
F-0.3169054973307457
sg18
F-0.24776872030073302
sg19
F-0.2808780899666986
sg20
I00
sg21
F0.3101128169098284
sg22
F-0.6321837228451068
sg23
F-0.4258797071749035
sg24
F-0.3155032871652021
ssS'COX DAVID'
p271
(dp272
g3
F0.7736074665830688
sg4
F-0.49262540045788034
sg5
F-0.335804305643508
sg6
F-0.09872982883249524
sg7
F-0.5260777063604076
sg8
F-0.08617209056231624
sg9
F0.16490513039303498
sg10
S'chip.cox@enron.com'
p273
sg12
F0.2658779782963589
sg13
F-0.36860673803012245
sg14
F-0.15266166981459503
sg15
F-0.5558524764006603
sg16
F-0.38244822484381813
sg17
F-0.26472084049474853
sg18
F-0.24725127935347746
sg19
F-0.2205168376915022
sg20
I00
sg21
F0.23470094892704796
sg22
F-0.5620444415225141
sg23
F-0.23641796140032023
sg24
F-0.3155032871652021
ssS'OVERDYKE JR JERE C'
p274
(dp275
g3
F-0.43249501243485167
sg4
F-0.5446751773770485
sg5
F-0.335804305643508
sg6
F-0.19521524052482112
sg7
F-0.2725584806701796
sg8
F-0.08617209056231624
sg9
F-0.5741086382866658
sg10
S'jere.overdyke@enron.com'
p276
sg12
F0.2658779782963589
sg13
F0.7292701248301167
sg14
F-0.3502106100078992
sg15
F-0.5558524764006603
sg16
F0.6888239540618288
sg17
F-0.3169054973307457
sg18
F-0.24758436887013185
sg19
F-0.2808780899666986
sg20
I00
sg21
F0.3101128169098284
sg22
F-0.6321837228451068
sg23
F0.5968996224780734
sg24
F-0.3155032871652021
ssS'STABLER FRANK'
p277
(dp278
g3
F0.3623888039351447
sg4
F-0.5446751773770485
sg5
F-0.335804305643508
sg6
F-0.0975182180727804
sg7
F-0.5260777063604076
sg8
F-0.08617209056231624
sg9
F-0.1122250328618528
sg10
S'frank.stabler@enron.com'
p279
sg12
F0.2658779782963589
sg13
F-0.36601175614914677
sg14
F-0.40098202257558124
sg15
F-0.5558524764006603
sg16
F-0.4069051010463585
sg17
F-0.3169054973307457
sg18
F0.12519831518556995
sg19
F-0.2808780899666986
sg20
I00
sg21
F0.3101128169098284
sg22
F-0.6321837228451068
sg23
F-0.1694432277545381
sg24
F-0.3155032871652021
ssS'SKILLING JEFFREY K'
p280
(dp281
g3
F5.155830577466336
sg4
F1.3061536548369006
sg5
F-0.335804305643508
sg6
F0.7602202852196591
sg7
F3.057338422833898
sg8
F-0.08617209056231624
sg9
F4.598987742471239
sg10
S'jeff.skilling@enron.com'
p282
sg12
F0.2658779782963589
sg13
F3.7570033106319367
sg14
F-0.12038243122091787
sg15
F0.9143882992655002
sg16
F3.5981213717093103
sg17
F-0.14611934768566417
sg18
F-0.22459700241573818
sg19
F0.17183130209727449
sg20
I01
sg21
F0.3101128169098284
sg22
F1.3850615230807306
sg23
F3.0035722229054325
sg24
F-0.3155032871652021
ssS'BLAKE JR. NORMAN P'
p283
(dp284
g3
F-0.954538055925031
sg4
F-0.5446751773770485
sg5
F-0.335804305643508
sg6
F-0.22337074516996983
sg7
F-0.5260777063604076
sg8
F-0.08617209056231624
sg9
F-0.5741086382866658
sg10
g27
sg12
F0.2658779782963589
sg13
F-0.44848740721921626
sg14
F-0.734388259846545
sg15
F-0.5558524764006603
sg16
F-0.4069051010463585
sg17
F-0.3169054973307457
sg18
F-0.24776872030073302
sg19
F-0.2808780899666986
sg20
I00
sg21
F0.10209672026612687
sg22
F-0.6321837228451068
sg23
F-0.4258797071749035
sg24
F3.479349685961179
ssS'SHERRICK JEFFREY B'
p285
(dp286
g3
F-0.954538055925031
sg4
F-0.2318662239314596
sg5
F-0.335804305643508
sg6
F-0.22351565354491607
sg7
F-0.5260777063604076
sg8
F-0.08617209056231624
sg9
F-0.5741086382866658
sg10
S'jeffrey.sherrick@enron.com'
p287
sg12
F0.2658779782963589
sg13
F-0.15315039352642257
sg14
F-0.7623781894474352
sg15
F0.09573150372411542
sg16
F-0.11012348506893997
sg17
F-0.2773716663943842
sg18
F-0.24776872030073302
sg19
F-0.009252454728314761
sg20
I00
sg21
F0.3101128169098284
sg22
F-0.056251314238464724
sg23
F-0.22242839417207597
sg24
F-0.3155032871652021
ssS'PRENTICE JAMES'
p288
(dp289
g3
F-0.954538055925031
sg4
F-0.5446751773770485
sg5
F0.6795240453173015
sg6
F-0.15957605105533673
sg7
F-0.5260777063604076
sg8
F-0.08617209056231624
sg9
F-0.5741086382866658
sg10
S'james.prentice@enron.com'
p290
sg12
F0.2658779782963589
sg13
F-0.2720009182468813
sg14
F-0.7623781894474352
sg15
F-0.5558524764006603
sg16
F-0.22252179632029465
sg17
F-0.3169054973307457
sg18
F-0.24776872030073302
sg19
F-0.2808780899666986
sg20
I00
sg21
F0.3101128169098284
sg22
F-0.6321837228451068
sg23
F-0.3212428356141178
sg24
F-0.3155032871652021
ssS'GRAY RODNEY'
p291
(dp292
g3
F-0.9181647848125767
sg4
F-0.5446751773770485
sg5
F-0.16743389638420814
sg6
F-0.09360138661831037
sg7
F0.15631110730452366
sg8
F-0.08617209056231624
sg9
F-0.5741086382866658
sg10
g27
sg12
F0.2658779782963589
sg13
F-0.44848740721921626
sg14
F-0.7623781894474352
sg15
F-0.5558524764006603
sg16
F-0.4069051010463585
sg17
F-0.3169054973307457
sg18
F0.465370697599759
sg19
F-0.2808780899666986
sg20
I00
sg21
F0.3101128169098284
sg22
F-0.6321837228451068
sg23
F-0.4258797071749035
sg24
F-0.3155032871652021
ssS'PICKERING MARK R'
p293
(dp294
g3
F2.6472515721458407
sg4
F-0.08643302371613688
sg5
F-0.335804305643508
sg6
F-0.06640619736490873
sg7
F-0.5260777063604076
sg8
F-0.028531192633540783
sg9
F-0.296978475031778
sg10
S'mark.pickering@enron.com'
p295
sg12
F0.2658779782963589
sg13
F-0.44384606269351373
sg14
F-0.06967667134190093
sg15
F-0.4389015056090339
sg16
F-0.400913581443116
sg17
F-0.21095483042129698
sg18
F-0.24776872030073302
sg19
F-0.2808780899666986
sg20
I00
sg21
F0.3101128169098284
sg22
F0.0869908800119008
sg23
F-0.4258797071749035
sg24
F-0.3155032871652021
ssS'THE TRAVEL AGENCY IN THE PARK'
p296
(dp297
g3
F-0.954538055925031
sg4
F-0.5446751773770485
sg5
F-0.335804305643508
sg6
F-0.1824908349878082
sg7
F-0.5260777063604076
sg8
F-0.08617209056231624
sg9
F-0.5741086382866658
sg10
g27
sg12
F0.2658779782963589
sg13
F-0.44848740721921626
sg14
F-0.7623781894474352
sg15
F-0.5558524764006603
sg16
F-0.4069051010463585
sg17
F-0.3169054973307457
sg18
F0.13150920932972934
sg19
F-0.2808780899666986
sg20
I00
sg21
F0.3101128169098284
sg22
F-0.6321837228451068
sg23
F-0.4258797071749035
sg24
F-0.3155032871652021
ssS'NOLES JAMES L'
p298
(dp299
g3
F-0.954538055925031
sg4
F-0.5446751773770485
sg5
F1.0574340691047002
sg6
F-0.135777428004057
sg7
F-0.5260777063604076
sg8
F-0.08617209056231624
sg9
F-0.5741086382866658
sg10
g27
sg12
F-0.8307221385083979
sg13
F-0.38906359537988183
sg14
F-0.7623781894474352
sg15
F-0.5558524764006603
sg16
F-0.4069051010463585
sg17
F-0.3169054973307457
sg18
F-0.24776872030073302
sg19
F-0.2808780899666986
sg20
I00
sg21
F0.3101128169098284
sg22
F-0.6321837228451068
sg23
F-0.1937336705762841
sg24
F-0.3155032871652021
ssS'FOWLER PEGGY'
p300
(dp301
g3
F-0.954538055925031
sg4
F-0.28085424926714725
sg5
F-0.335804305643508
sg6
F-0.22351565354491607
sg7
F-0.5260777063604076
sg8
F-0.08617209056231624
sg9
F-0.5741086382866658
sg10
S'kulvinder.fowler@enron.com'
p302
sg12
F0.2658779782963589
sg13
F-0.14472447881693828
sg14
F-0.7623781894474352
sg15
F-0.5558524764006603
sg16
F-0.13132224622922817
sg17
F-0.2599767807823852
sg18
F-0.24776872030073302
sg19
F-0.2808780899666986
sg20
I00
sg21
F0.3101128169098284
sg22
F-0.6223049508278403
sg23
F-0.14517132610797012
sg24
F-0.3155032871652021
ssS'WASAFF GEORGE'
p303
(dp304
g3
F0.47507721182307233
sg4
F-0.34055840514501656
sg5
F1.15980025541699
sg6
F-0.10632058043894524
sg7
F-0.15280519290266742
sg8
F-0.08617209056231624
sg9
F-0.27388429476053733
sg10
S'george.wasaff@enron.com'
p305
sg12
F0.2658779782963589
sg13
F-0.1170551480707724
sg14
F-0.7623781894474352
sg15
F-0.18829228248412014
sg16
F-0.059818063984572914
sg17
F-0.26946490020711195
sg18
F-0.24627610218364968
sg19
F-0.1752458984851049
sg20
I00
sg21
F-0.7563024046915143
sg22
F-0.2992691058632228
sg23
F-0.2313642383822007
sg24
F-0.3155032871652021
ssS'WHITE JR THOMAS E'
p306
(dp307
g3
F0.7915054253844352
sg4
F-0.5446751773770485
sg5
F-0.335804305643508
sg6
F-0.004356295255101602
sg7
F-0.5260777063604076
sg8
F-0.08617209056231624
sg9
F-0.1584133934043341
sg10
S'thomas.white@enron.com'
p308
sg12
F0.2658779782963589
sg13
F1.992275575717649
sg14
F1.0179695375433564
sg15
F-0.5558524764006603
sg16
F-0.13704974616525367
sg17
F-0.3169054973307457
sg18
F0.8892009212597111
sg19
F-0.2808780899666986
sg20
I00
sg21
F0.3101128169098284
sg22
F-0.6321837228451068
sg23
F6.5130669073421625
sg24
F-0.3155032871652021
ssS'ALLEN PHILLIP K'
p309
(dp310
g3
F0.15593268746359115
sg4
F0.9361920051663428
sg5
F4.827153708443901
sg6
F0.28456347292948303
sg7
F0.04279893596202488
sg8
F-0.08617209056231624
sg9
F3.282619467010522
sg10
S'phillip.allen@enron.com'
p311
sg12
F-1.1957027032104
sg13
F-0.169739033987461
sg14
F-0.45888769397820484
sg15
F0.22938975605740275
sg16
F-0.04706834828187472
sg17
F3.1541648588817908
sg18
F-0.24760950770157747
sg19
F0.6999922595052431
sg20
I00
sg21
F-5.3225687081249715
sg22
F0.7577594999843023
sg23
F-0.36272595895432325
sg24
F-0.3155032871652021
ssS'SHARP VICTORIA T'
p312
(dp313
g3
F0.4099187442973603
sg4
F1.0556003169220813
sg5
F0.0014744490012714513
sg6
F-0.04489982313451464
sg7
F0.2618221823210558
sg8
F-0.08617209056231624
sg9
F-0.019848311776890216
sg10
S'vicki.sharp@enron.com'
p314
sg12
F0.2658779782963589
sg13
F-0.36884800800564077
sg14
F1.7835674242967137
sg15
F-0.1548777194007983
sg16
F-0.34842692931769076
sg17
F-0.10184145703693934
sg18
F-0.24525378970486136
sg19
F-0.190336211553904
sg20
I00
sg21
F0.3101128169098284
sg22
F1.8147881058318271
sg23
F-0.31911110158148714
sg24
F-0.3155032871652021
ssS'JAEDICKE ROBERT'
p315
(dp316
g3
F-0.954538055925031
sg4
F-0.5446751773770485
sg5
F-0.335804305643508
sg6
F-0.21402693079139826
sg7
F-0.5260777063604076
sg8
F-0.08617209056231624
sg9
F-0.5741086382866658
sg10
g27
sg12
F-0.2454844836338427
sg13
F-0.37890269651110914
sg14
F-0.7623781894474352
sg15
F-0.5558524764006603
sg16
F-0.3170780787288385
sg17
F-0.3169054973307457
sg18
F-0.24776872030073302
sg19
F-0.2808780899666986
sg20
I00
sg21
F0.2644086544960221
sg22
F-0.6321837228451068
sg23
F-0.40378413860396195
sg24
F3.311458858896581
ssS'WINOKUR JR. HERBERT S'
p317
(dp318
g3
F-0.954538055925031
sg4
F-0.5446751773770485
sg5
F-0.335804305643508
sg6
F-0.21388621444919087
sg7
F-0.5260777063604076
sg8
F-0.08617209056231624
sg9
F-0.5741086382866658
sg10
g27
sg12
F0.2658779782963589
sg13
F-0.44848740721921626
sg14
F-0.7314557730861702
sg15
F-0.5558524764006603
sg16
F-0.4069051010463585
sg17
F-0.3169054973307457
sg18
F-0.24776872030073302
sg19
F-0.2808780899666986
sg20
I00
sg21
F0.2644086544960221
sg22
F-0.6321837228451068
sg23
F-0.4258797071749035
sg24
F3.3057557735910494
ssS'BROWN MICHAEL'
p319
(dp320
g3
F-0.954538055925031
sg4
F0.21361863146495
sg5
F-0.335804305643508
sg6
F-0.21793141274401595
sg7
F-0.5260777063604076
sg8
F-0.08617209056231624
sg9
F-0.5741086382866658
sg10
S'michael.brown@enron.com'
p321
sg12
F0.2658779782963589
sg13
F-0.44848740721921626
sg14
F0.3162517168611476
sg15
F-0.3386578163590684
sg16
F-0.4069051010463585
sg17
F-0.2520700145951129
sg18
F-0.24776872030073302
sg19
F-0.2657877768978995
sg20
I00
sg21
F0.3101128169098284
sg22
F0.11959082766888056
sg23
F-0.4258797071749035
sg24
F-0.3155032871652021
ssS'MCCLELLAN GEORGE'
p322
(dp323
g3
F0.49386594461086625
sg4
F0.34527394955461055
sg5
F-0.335804305643508
sg6
F-0.07410220298255893
sg7
F-0.5260777063604076
sg8
F-0.08617209056231624
sg9
F0.25728185147799754
sg10
S'george.mcclellan@enron.com'
p324
sg12
F0.2658779782963589
sg13
F-0.2957216087791534
sg14
F4.243923816251119
sg15
F0.3129261637657073
sg16
F-0.301470958684487
sg17
F-0.2394191886954772
sg18
F-0.19373384955969566
sg19
F-0.2808780899666986
sg20
I00
sg21
F0.0815920048407968
sg22
F0.819007886491355
sg23
F-0.2048408367336088
sg24
F-0.3155032871652021
ssS'HUGHES JAMES A'
p325
(dp326
g3
F-0.954538055925031
sg4
F-0.17777527928997114
sg5
F-0.335804305643508
sg6
F-0.22351565354491607
sg7
F-0.5260777063604076
sg8
F-0.08617209056231624
sg9
F-0.5741086382866658
sg10
S'james.hughes@enron.com'
p327
sg12
F0.2658779782963589
sg13
F-0.2682369776936047
sg14
F-0.7623781894474352
sg15
F0.02890237755747175
sg16
F-0.2498319157980231
sg17
F-0.2631394872572941
sg18
F-0.24776872030073302
sg19
F-0.2054265246227031
sg20
I00
sg21
F0.3101128169098284
sg22
F-0.05032405102810478
sg23
F-0.24376126899650502
sg24
F-0.3155032871652021
ssS'REYNOLDS LAWRENCE'
p328
(dp329
g3
F-0.5344501436468139
sg4
F-0.5446751773770485
sg5
F-0.2433926363417616
sg6
F-0.17882235314857053
sg7
F-0.23445855522154807
sg8
F-0.08617209056231624
sg9
F-0.48173191720170316
sg10
g27
sg12
F-1.3608143393091068
sg13
F0.23195049405735851
sg14
F-0.5783537031191428
sg15
F-0.5558524764006603
sg16
F0.45873653554861676
sg17
F-0.3169054973307457
sg18
F-0.03612908816534853
sg19
F-0.2808780899666986
sg20
I00
sg21
F-0.055520482400622136
sg22
F-0.6321837228451068
sg23
F-0.3249139882993676
sg24
F-0.3155032871652021
ssS'DIMICHELE RICHARD G'
p330
(dp331
g3
F0.4904293165768097
sg4
F-0.5446751773770485
sg5
F-0.335804305643508
sg6
F0.044791549768110325
sg7
F0.7707867198709537
sg8
F-0.08617209056231624
sg9
F0.3496585725629601
sg10
S'richard.dimichele@enron.com'
p332
sg12
F0.2658779782963589
sg13
F0.8920811028053368
sg14
F0.02133983937749112
sg15
F-0.5558524764006603
sg16
F1.2974167500356475
sg17
F-0.3169054973307457
sg18
F0.14469976367950513
sg19
F-0.2808780899666986
sg20
I00
sg21
F0.3101128169098284
sg22
F-0.6321837228451068
sg23
F-0.36272595895432325
sg24
F-0.3155032871652021
ssS'CARTER REBECCA C'
p333
(dp334
g3
F0.48504618242426356
sg4
F-0.3854640950360636
sg5
F-0.335804305643508
sg6
F-0.1694093135807166
sg7
F-0.386100513813755
sg8
F-0.08617209056231624
sg9
F-0.296978475031778
sg10
S'rebecca.carter@enron.com'
p335
sg12
F-3.2980028171499227
sg13
F-0.44848740721921626
sg14
F-0.7623781894474352
sg15
F-0.07134131169249375
sg16
F-0.4069051010463585
sg17
F-0.2931851987689288
sg18
F-0.2472030965932067
sg19
F-0.1752458984851049
sg20
I00
sg21
F0.017986436092750833
sg22
F-0.4385597913066817
sg23
F-0.2718872295158898
sg24
F-0.3155032871652021
ssS'BUCHANAN HAROLD G'
p336
(dp337
g3
F0.40920942427113105
sg4
F0.010522443094078267
sg5
F-0.335804305643508
sg6
F-0.10402719863623829
sg7
F0.04279893596202488
sg8
F-0.08617209056231624
sg9
F-0.1122250328618528
sg10
S'john.buchanan@enron.com'
p338
sg12
F0.2658779782963589
sg13
F-0.28498066272140915
sg14
F-0.749247651714414
sg15
F-0.5558524764006603
sg16
F-0.23516457261483717
sg17
F-0.11923634264893837
sg18
F-0.2464960669587988
sg19
F-0.2808780899666986
sg20
I00
sg21
F0.3101128169098284
sg22
F-0.6094625472053937
sg23
F-0.3311488342876118
sg24
F-0.3155032871652021
ssS'YEAP SOON'
p339
(dp340
g3
F-0.954538055925031
sg4
F-0.5446751773770485
sg5
F-0.335804305643508
sg6
F-0.21727326360401372
sg7
F-0.5260777063604076
sg8
F-0.08617209056231624
sg9
F-0.5741086382866658
sg10
g27
sg12
F0.2658779782963589
sg13
F-0.41742079536820687
sg14
F0.44337720634634803
sg15
F-0.5558524764006603
sg16
F-0.3668011585614007
sg17
F-0.3169054973307457
sg18
F-0.24776872030073302
sg19
F-0.2808780899666986
sg20
I00
sg21
F0.3101128169098284
sg22
F-0.6321837228451068
sg23
F-0.4258797071749035
sg24
F-0.3155032871652021
ssS'MURRAY JULIA H'
p341
(dp342
g3
F0.3062040595319611
sg4
F0.5738847344544863
sg5
F-0.335804305643508
sg6
F-0.1314955498067591
sg7
F-0.29278238544931995
sg8
F-0.08617209056231624
sg9
F-0.2046017539468154
sg10
S'julia.murray@enron.com'
p343
sg12
F0.2658779782963589
sg13
F-0.3521952222872501
sg14
F0.49771574833150084
sg15
F-0.37207237944239024
sg16
F-0.3235843222538263
sg17
F-0.24574460164529505
sg18
F-0.24742306136835582
sg19
F-0.2506974638291004
sg20
I00
sg21
F0.3101128169098284
sg22
F-0.2419722281630766
sg23
F-0.32716899609129
sg24
F-0.3155032871652021
ssS'GARLAND C KEVIN'
p344
(dp345
g3
F0.32084134565461475
sg4
F-0.4380241638858118
sg5
F-0.335804305643508
sg6
F-0.04603756347947973
sg7
F0.174375630593311
sg8
F-0.08617209056231624
sg9
F0.21109349093551627
sg10
S'kevin.garland@enron.com'
p346
sg12
F0.2658779782963589
sg13
F-0.3040553348273174
sg14
F0.2969279421640514
sg15
F-0.38877966098405115
sg16
F-0.27453200633545444
sg17
F-0.24732595488274953
sg18
F-0.18406901632016726
sg19
F0.12656036289087716
sg20
I00
sg21
F0.3101128169098284
sg22
F-0.45634158093776156
sg23
F-0.2956369715804171
sg24
F-0.3155032871652021
ssS'DODSON KEITH'
p347
(dp348
g3
F0.2606701127319256
sg4
F-0.45486379759495443
sg5
F-0.335804305643508
sg6
F-0.18726691985556393
sg7
F-0.5260777063604076
sg8
F-0.08617209056231624
sg9
F-0.5094449335271919
sg10
S'keith.dodson@enron.com'
p349
sg12
F0.2658779782963589
sg13
F-0.44848740721921626
sg14
F-0.1460307482594193
sg15
F-0.38877966098405115
sg16
F-0.4069051010463585
sg17
F-0.29476655200638324
sg18
F-0.24695799298661197
sg19
F-0.2356071507603013
sg20
I00
sg21
F0.3101128169098284
sg22
F-0.5195657218482678
sg23
F-0.4258797071749035
sg24
F-0.3155032871652021
ssS'YEAGER F SCOTT'
p350
(dp351
g3
F-0.08354255115917766
sg4
F-0.5446751773770485
sg5
F-0.335804305643508
sg6
F-0.18269431852291645
sg7
F-0.5260777063604076
sg8
F-0.08617209056231624
sg9
F-0.5741086382866658
sg10
S'scott.yeager@enron.com'
p352
sg12
F0.2658779782963589
sg13
F1.466967016094882
sg14
F0.4182103423580574
sg15
F-0.5558524764006603
sg16
F1.3217167540324497
sg17
F-0.3169054973307457
sg18
F-0.0927982989516242
sg19
F-0.2808780899666986
sg20
I01
sg21
F0.3101128169098284
sg22
F-0.6321837228451068
sg23
F1.3662030473850577
sg24
F-0.3155032871652021
ssS'HIRKO JOSEPH'
p353
(dp354
g3
F-0.954538055925031
sg4
F-0.5446751773770485
sg5
F-0.3173471594278628
sg6
F-0.21319498224000624
sg7
F-0.5260777063604076
sg8
F-0.08617209056231624
sg9
F-0.5741086382866658
sg10
S'joe.hirko@enron.com'
p355
sg12
F0.2658779782963589
sg13
F4.5100480023166485
sg14
F0.9441102627951121
sg15
F-0.5558524764006603
sg16
F5.994076757784559
sg17
F-0.3169054973307457
sg18
F-0.24477719935870493
sg19
F-0.2808780899666986
sg20
I01
sg21
F0.3101128169098284
sg22
F-0.6321837228451068
sg23
F-0.4258797071749035
sg24
F-0.3155032871652021
ssS'DIETRICH JANET R'
p356
(dp357
g3
F0.4206630181830347
sg4
F0.7677956680749166
sg5
F-0.335804305643508
sg6
F-0.06371264638291312
sg7
F0.5123962878801022
sg8
F-0.08617209056231624
sg9
F-0.019848311776890216
sg10
S'janet.dietrich@enron.com'
p358
sg12
F0.2658779782963589
sg13
F-0.14789322229634094
sg14
F-0.6863304917436873
sg15
F4.539868393805919
sg16
F-0.08441849698016268
sg17
F-0.2172802433711148
sg18
F-0.24727327583099237
sg19
F-0.06961370700351117
sg20
I00
sg21
F0.3101128169098284
sg22
F1.2467587148389982
sg23
F-0.26799508606703165
sg24
F-0.3155032871652021
ssS'PAI LOU L'
p359
(dp360
g3
F0.48543108476407787
sg4
F-0.5446751773770485
sg5
F-0.335804305643508
sg6
F0.1303579624556896
sg7
F-0.5260777063604076
sg8
F-0.08617209056231624
sg9
F0.3496585725629601
sg10
S'lou.pai@enron.com'
p361
sg12
F0.2658779782963589
sg13
F3.390224274809611
sg14
F-0.06105428489721701
sg15
F-0.5558524764006603
sg16
F2.7896609024258
sg17
F-0.3169054973307457
sg18
F1.6684984113658878
sg19
F-0.2808780899666986
sg20
I00
sg21
F0.3101128169098284
sg22
F-0.6321837228451068
sg23
F3.8104095008397016
sg24
F-0.3155032871652021
ssS'BAY FRANKLIN R'
p362
(dp363
g3
F0.3633180681555536
sg4
F-0.5446751773770485
sg5
F0.13278483731349305
sg6
F-0.12973920138735573
sg7
F-0.5260777063604076
sg8
F-0.08617209056231624
sg9
F-0.2046017539468154
sg10
S'frank.bay@enron.com'
p364
sg12
F-0.6941748038574058
sg13
F-0.43833150458908154
sg14
F2.0637949837489415
sg15
F-0.5558524764006603
sg16
F-0.4069051010463585
sg17
F-0.3169054973307457
sg18
F-0.24769644616032688
sg19
F-0.2808780899666986
sg20
I00
sg21
F-0.05852050362146439
sg22
F-0.6321837228451068
sg23
F-0.3528194591679866
sg24
F-0.3155032871652021
ssS'MCCARTY DANNY J'
p365
(dp366
g3
F-0.954538055925031
sg4
F0.18657315914420577
sg5
F-0.335804305643508
sg6
F-0.22351565354491607
sg7
F-0.5260777063604076
sg8
F-0.08617209056231624
sg9
F-0.5741086382866658
sg10
S'danny.mccarty@enron.com'
p367
sg12
F0.2658779782963589
sg13
F-0.3261712657428655
sg14
F-0.7623781894474352
sg15
F-0.1381704378591374
sg16
F-0.2686796744054729
sg17
F0.02308544872196289
sg18
F-0.24776872030073302
sg19
F-0.2506974638291004
sg20
I00
sg21
F0.3101128169098284
sg22
F-0.13034210436796415
sg23
F-0.3784964812253436
sg24
F-0.3155032871652021
ssS'FUGH JOHN L'
p368
(dp369
g3
F-0.954538055925031
sg4
F-0.5446751773770485
sg5
F-0.24478515327040076
sg6
F-0.21778378521269853
sg7
F-0.5260777063604076
sg8
F-0.08617209056231624
sg9
F-0.5741086382866658
sg10
g27
sg12
F0.2658779782963589
sg13
F-0.4200607433969244
sg14
F-0.7623781894474352
sg15
F-0.5558524764006603
sg16
F-0.3702090719964001
sg17
F-0.3169054973307457
sg18
F-0.24776872030073302
sg19
F-0.2808780899666986
sg20
I00
sg21
F0.3101128169098284
sg22
F-0.6321837228451068
sg23
F-0.4258797071749035
sg24
F-0.3155032871652021
ssS'FALLON JAMES B'
p370
(dp371
g3
F0.7202709994945112
sg4
F0.3508871607909914
sg5
F-0.335804305643508
sg6
F0.1930069853526084
sg7
F0.17258952161641572
sg8
F-0.08617209056231624
sg9
F1.735309388837399
sg10
S'jim.fallon@enron.com'
p372
sg12
F0.2658779782963589
sg13
F-0.07257702002551995
sg14
F1.3368446463897767
sg15
F0.14585334834909816
sg16
F-0.211281507477848
sg17
F-0.1983040045216613
sg18
F0.17276307918329237
sg19
F0.2774634935788682
sg20
I00
sg21
F0.3101128169098284
sg22
F0.952371308724454
sg23
F0.2717405278167646
sg24
F-0.3155032871652021
ssS'KOENIG MARK E'
p373
(dp374
g3
F0.7497325243048711
sg4
F0.6667578658200608
sg5
F-0.335804305643508
sg6
F-0.04366373996745937
sg7
F0.03383106382620267
sg8
F-0.08617209056231624
sg9
F0.07252840930807238
sg10
S'mark.koenig@enron.com'
p375
sg12
F0.2658779782963589
sg13
F-0.1390340853462466
sg14
F2.0172909959444913
sg15
F0.3296334453073682
sg16
F-0.2671479858396325
sg17
F-0.22044294984602372
sg18
F-0.09017129106555752
sg19
F-0.054523393934712075
sg20
I01
sg21
F0.3101128169098284
sg22
F1.6112854022761356
sg23
F0.19966847433555246
sg24
F-0.3155032871652021
ssS'SAVAGE FRANK'
p376
(dp377
g3
F-0.954538055925031
sg4
F-0.5446751773770485
sg5
F-0.335804305643508
sg6
F-0.22309078536192273
sg7
F-0.5260777063604076
sg8
F-0.08617209056231624
sg9
F-0.5741086382866658
sg10
g27
sg12
F0.2658779782963589
sg13
F-0.44848740721921626
sg14
F-0.7623781894474352
sg15
F-0.5558524764006603
sg16
F-0.4069051010463585
sg17
F-0.3169054973307457
sg18
F-0.24776872030073302
sg19
F-0.2808780899666986
sg20
I00
sg21
F0.08838547154198498
sg22
F-0.6321837228451068
sg23
F-0.4258797071749035
sg24
F3.85455266658826
ssS'IZZO LAWRENCE L'
p378
(dp379
g3
F-0.485650025563211
sg4
F-0.29157037980932893
sg5
F-0.335804305643508
sg6
F0.0007689746099835953
sg7
F0.05716059591731143
sg8
F-0.08617209056231624
sg9
F-0.5741086382866658
sg10
S'larry.izzo@enron.com'
p380
sg12
F0.2658779782963589
sg13
F0.48951288143618477
sg14
F-0.14758452855782683
sg15
F-0.08804859323415466
sg16
F0.04356612898321748
sg17
F-0.286859785819111
sg18
F1.3796867564977089
sg19
F-0.2054265246227031
sg20
I00
sg21
F0.3101128169098284
sg22
F-0.20048138569055693
sg23
F1.4055915190429884
sg24
F-0.3155032871652021
ssS'TILNEY ELIZABETH A'
p381
(dp382
g3
F0.40547587157493203
sg4
F-0.3099408893102118
sg5
F-0.335804305643508
sg6
F-0.17826515268884754
sg7
F-0.012828000356014849
sg8
F-0.08617209056231624
sg9
F-0.296978475031778
sg10
S'elizabeth.tilney@enron.com'
p383
sg12
F0.2658779782963589
sg13
F-0.26023525976138445
sg14
F-0.7623781894474352
sg15
F-0.38877966098405115
sg16
F-0.2838935736688629
sg17
F-0.286859785819111
sg18
F-0.08849851132311395
sg19
F-0.11488464620990849
sg20
I00
sg21
F-0.7410829186077168
sg22
F-0.25777826339070314
sg23
F-0.13684182843745124
sg24
F-0.3155032871652021
ssS'BUY RICHARD B'
p384
(dp385
g3
F0.8630037843073748
sg4
F1.2530832940565722
sg5
F0.8328736227455825
sg6
F0.04338110069875459
sg7
F0.9107639124176062
sg8
F-0.08617209056231624
sg9
F0.25728185147799754
sg10
S'rick.buy@enron.com'
p386
sg12
F0.2658779782963589
sg13
F0.10665433798693034
sg14
F-0.7623781894474352
sg15
F2.0504834440984427
sg16
F0.12213559403246027
sg17
F1.3482594617087993
sg18
F0.17181094594228974
sg19
F0.7905341379180377
sg20
I00
sg21
F-0.9602106112174629
sg22
F1.6725337887831884
sg23
F0.025952195189857086
sg24
F-0.3155032871652021
ssS'GRAMM WENDY L'
p387
(dp388
g3
F-0.954538055925031
sg4
F-0.5446751773770485
sg5
F-0.335804305643508
sg6
F-0.2100000868020785
sg7
F-0.5260777063604076
sg8
F-0.08617209056231624
sg9
F-0.5741086382866658
sg10
g27
sg12
F0.2658779782963589
sg13
F-0.44848740721921626
sg14
F-0.7623781894474352
sg15
F-0.5558524764006603
sg16
F-0.4069051010463585
sg17
F-0.3169054973307457
sg18
F-0.24776872030073302
sg19
F-0.2808780899666986
sg20
I00
sg21
F0.3101128169098284
sg22
F-0.6321837228451068
sg23
F-0.4258797071749035
sg24
F3.663049065276198
ssS'CAUSEY RICHARD A'
p389
(dp390
g3
F1.3284221950060113
sg4
F0.42079715528046235
sg5
F-0.335804305643508
sg6
F-0.011788769301113805
sg7
F0.12714919219063772
sg8
F-0.08617209056231624
sg9
F0.3496585725629601
sg10
S'richard.causey@enron.com'
p391
sg12
F0.2658779782963589
sg13
F-0.04523244479082328
sg14
F-0.09110133207628056
sg15
F0.4131698530156728
sg16
F-0.4069051010463585
sg17
F-0.2394191886954772
sg18
F0.07473630086374052
sg19
F-0.09979433314110939
sg20
I01
sg21
F-0.11950630977995098
sg22
F0.9336016418916475
sg23
F0.8279361952430668
sg24
F-0.3155032871652021
ssS'TAYLOR MITCHELL S'
p392
(dp393
g3
F0.5037689319538036
sg4
F-0.27268957837786595
sg5
F0.07340316580617404
sg6
F-0.09971892196250373
sg7
F-0.5260777063604076
sg8
F-0.08617209056231624
sg9
F-0.019848311776890216
sg10
S'mitchell.taylor@enron.com'
p394
sg12
F0.2658779782963589
sg13
F0.1550981901588387
sg14
F-0.7623781894474352
sg15
F-0.5558524764006603
sg16
F0.25496453357462706
sg17
F-0.2710462534445664
sg18
F-0.24776872030073302
sg19
F-0.2808780899666986
sg20
I00
sg21
F0.3101128169098284
sg22
F-0.3358205623271092
sg23
F-0.14335328871483796
sg24
F-0.3155032871652021
ssS'DONAHUE JR JEFFREY M'
p395
(dp396
g3
F0.5773787551408675
sg4
F-0.10327265742527951
sg5
F-0.335804305643508
sg6
F-0.12429363756138462
sg7
F-0.5260777063604076
sg8
F-0.08617209056231624
sg9
F0.16490513039303498
sg10
S'jeff.donahue@enron.com'
p397
sg12
F0.2658779782963589
sg13
F-0.27426566487078474
sg14
F1.3443728213567088
sg15
F2.585116453431592
sg16
F-0.24755289969503266
sg17
F-0.2821157261067476
sg18
F-0.2468354411833146
sg19
F-0.11488464620990849
sg20
I00
sg21
F-0.2383371320558474
sg22
F0.1304574768878738
sg23
F-0.26799508606703165
sg24
F-0.3155032871652021
ssS'GLISAN JR BEN F'
p398
(dp399
g3
F0.5574408139384851
sg4
F-0.09919032198063887
sg5
F-0.335804305643508
sg6
F-0.07936818918985152
sg7
F-0.39352303774386216
sg8
F-0.08617209056231624
sg9
F-0.019848311776890216
sg10
S'ben.glisan@enron.com'
p400
sg12
F0.2658779782963589
sg13
F-0.3230099360369256
sg14
F1.9945532814368094
sg15
F0.3129261637657073
sg16
F-0.32686116209517185
sg17
F-0.29160384553147434
sg18
F-0.03795584325039649
sg19
F-0.190336211553904
sg20
I01
sg21
F0.3101128169098284
sg22
F0.23122095146399302
sg23
F-0.22853244970838874
sg24
F-0.3155032871652021
ss.